

Microchip Technology PIC LITE Macro Assembler V1.45 build -152302408 
                                                                                               Sun Jul 15 16:32:43 2018

Microchip Technology Omniscient Code Generator v1.45 (Free mode) build 201711160504
     1                           	processor	16F1827
     2                           	opt	pw 120
     3                           	opt	lm
     4                           	psect	idataBANK0,global,class=CODE,delta=2
     5                           	psect	stringtext1,global,class=STRCODE,delta=2
     6                           	psect	nvBANK0,global,class=BANK0,space=1,delta=1
     7                           	psect	stringtext2,global,class=STRCODE,delta=2
     8                           	psect	stringtext3,global,class=STRCODE,delta=2
     9                           	psect	stringtext4,global,class=STRCODE,delta=2
    10                           	psect	stringtext5,global,class=STRCODE,delta=2
    11                           	psect	stringtext6,global,class=STRCODE,delta=2
    12                           	psect	stringtext7,global,class=STRCODE,delta=2
    13                           	psect	stringtext8,global,class=STRCODE,delta=2
    14                           	psect	cinit,global,class=CODE,merge=1,delta=2
    15                           	psect	bssCOMMON,global,class=COMMON,space=1,delta=1
    16                           	psect	bssBANK0,global,class=BANK0,space=1,delta=1
    17                           	psect	dataBANK0,global,class=BANK0,space=1,delta=1
    18                           	psect	bssBANK1,global,class=BANK1,space=1,delta=1
    19                           	psect	cstackBANK1,global,class=BANK1,space=1,delta=1
    20                           	psect	cstackCOMMON,global,class=COMMON,space=1,delta=1
    21                           	psect	cstackBANK0,global,class=BANK0,space=1,delta=1
    22                           	psect	maintext,global,class=CODE,merge=1,split=1,delta=2
    23                           	psect	text1,local,class=CODE,merge=1,delta=2
    24                           	psect	text2,local,class=CODE,merge=1,delta=2,group=2
    25                           	psect	text3,local,class=CODE,merge=1,delta=2,group=2
    26                           	psect	text4,local,class=CODE,merge=1,delta=2,group=2
    27                           	psect	text5,local,class=CODE,merge=1,delta=2,group=2
    28                           	psect	text6,local,class=CODE,merge=1,delta=2
    29                           	psect	text7,local,class=CODE,merge=1,delta=2
    30                           	psect	text8,local,class=CODE,merge=1,delta=2
    31                           	psect	text9,local,class=CODE,merge=1,delta=2
    32                           	psect	text10,local,class=CODE,merge=1,delta=2
    33                           	psect	text11,local,class=CODE,merge=1,delta=2
    34                           	psect	text12,local,class=CODE,merge=1,delta=2
    35                           	psect	text13,local,class=CODE,merge=1,delta=2
    36                           	psect	text14,local,class=CODE,merge=1,delta=2
    37                           	psect	text15,local,class=CODE,merge=1,delta=2
    38                           	psect	text16,local,class=CODE,merge=1,delta=2
    39                           	psect	text17,local,class=CODE,merge=1,delta=2
    40                           	psect	intentry,global,class=CODE,delta=2
    41                           	psect	text19,local,class=CODE,merge=1,delta=2,group=2
    42                           	psect	text20,local,class=CODE,merge=1,delta=2,group=2
    43                           	psect	text21,local,class=CODE,merge=1,delta=2,group=2
    44                           	psect	text22,local,class=CODE,merge=1,delta=2,group=2
    45                           	psect	text23,local,class=CODE,merge=1,delta=2,group=2
    46                           	psect	text24,local,class=CODE,merge=1,delta=2,group=2
    47                           	psect	text25,local,class=CODE,merge=1,delta=2
    48                           	dabs	1,0x7E,2
    49  0000                     
    50                           ; Version 1.45
    51                           ; Generated 16/11/2017 GMT
    52                           ; 
    53                           ; Copyright © 2017, Microchip Technology Inc. and its subsidiaries ("Microchip")
    54                           ; All rights reserved.
    55                           ; 
    56                           ; This software is developed by Microchip Technology Inc. and its subsidiaries ("Microch
      +                          ip").
    57                           ; 
    58                           ; Redistribution and use in source and binary forms, with or without modification, are
    59                           ; permitted provided that the following conditions are met:
    60                           ; 
    61                           ;     1. Redistributions of source code must retain the above copyright notice, this lis
      +                          t of
    62                           ;        conditions and the following disclaimer.
    63                           ; 
    64                           ;     2. Redistributions in binary form must reproduce the above copyright notice, this 
      +                          list
    65                           ;        of conditions and the following disclaimer in the documentation and/or other
    66                           ;        materials provided with the distribution.
    67                           ; 
    68                           ;     3. Microchip's name may not be used to endorse or promote products derived from th
      +                          is
    69                           ;        software without specific prior written permission.
    70                           ; 
    71                           ; THIS SOFTWARE IS PROVIDED BY MICROCHIP "AS IS" AND ANY EXPRESS OR IMPLIED WARRANTIES,
    72                           ; INCLUDING, BUT NOT LIMITED TO, THE IMPLIED WARRANTIES OF MERCHANTABILITY AND FITNESS F
      +                          OR
    73                           ; PURPOSE ARE DISCLAIMED.  IN NO EVENT SHALL MICROCHIP BE LIABLE FOR ANY DIRECT, INDIREC
      +                          T,
    74                           ; INCIDENTAL, SPECIAL, EXEMPLARY, OR CONSEQUENTIAL DAMAGES (INCLUDING BUT NOT LIMITED TO
    75                           ; PROCUREMENT OF SUBSTITUTE GOODS OR SERVICES; LOSS OF USE, DATA OR PROFITS; OR BUSINESS
    76                           ; INTERRUPTION) HOWSOEVER CAUSED AND ON ANY THEORY OF LIABILITY, WHETHER IN CONTRACT, ST
      +                          RICT
    77                           ; LIABILITY, OR TORT (INCLUDING NEGLIGENCE OR OTHERWISE) ARISING IN ANY WAY OUT OF THE U
      +                          SE OF
    78                           ; THIS SOFTWARE, EVEN IF ADVISED OF THE POSSIBILITY OF SUCH DAMAGE.
    79                           ; 
    80                           ; 
    81                           ; Code-generator required, PIC16F1827 Definitions
    82                           ; 
    83                           ; SFR Addresses
    84  0000                     	;# 
    85  0001                     	;# 
    86  0002                     	;# 
    87  0003                     	;# 
    88  0004                     	;# 
    89  0005                     	;# 
    90  0006                     	;# 
    91  0007                     	;# 
    92  0008                     	;# 
    93  0009                     	;# 
    94  000A                     	;# 
    95  000B                     	;# 
    96  000C                     	;# 
    97  000D                     	;# 
    98  0011                     	;# 
    99  0012                     	;# 
   100  0013                     	;# 
   101  0014                     	;# 
   102  0015                     	;# 
   103  0016                     	;# 
   104  0016                     	;# 
   105  0017                     	;# 
   106  0018                     	;# 
   107  0019                     	;# 
   108  001A                     	;# 
   109  001B                     	;# 
   110  001C                     	;# 
   111  001E                     	;# 
   112  001F                     	;# 
   113  008C                     	;# 
   114  008D                     	;# 
   115  0091                     	;# 
   116  0092                     	;# 
   117  0093                     	;# 
   118  0094                     	;# 
   119  0095                     	;# 
   120  0096                     	;# 
   121  0097                     	;# 
   122  0098                     	;# 
   123  0099                     	;# 
   124  009A                     	;# 
   125  009B                     	;# 
   126  009B                     	;# 
   127  009C                     	;# 
   128  009D                     	;# 
   129  009E                     	;# 
   130  010C                     	;# 
   131  010D                     	;# 
   132  0111                     	;# 
   133  0112                     	;# 
   134  0113                     	;# 
   135  0114                     	;# 
   136  0115                     	;# 
   137  0116                     	;# 
   138  0117                     	;# 
   139  0118                     	;# 
   140  0119                     	;# 
   141  011A                     	;# 
   142  011B                     	;# 
   143  011D                     	;# 
   144  011E                     	;# 
   145  018C                     	;# 
   146  018D                     	;# 
   147  0191                     	;# 
   148  0191                     	;# 
   149  0192                     	;# 
   150  0193                     	;# 
   151  0193                     	;# 
   152  0193                     	;# 
   153  0194                     	;# 
   154  0195                     	;# 
   155  0196                     	;# 
   156  0199                     	;# 
   157  019A                     	;# 
   158  019B                     	;# 
   159  019B                     	;# 
   160  019B                     	;# 
   161  019B                     	;# 
   162  019C                     	;# 
   163  019C                     	;# 
   164  019D                     	;# 
   165  019E                     	;# 
   166  019F                     	;# 
   167  020C                     	;# 
   168  020D                     	;# 
   169  0211                     	;# 
   170  0211                     	;# 
   171  0212                     	;# 
   172  0212                     	;# 
   173  0213                     	;# 
   174  0213                     	;# 
   175  0214                     	;# 
   176  0214                     	;# 
   177  0215                     	;# 
   178  0215                     	;# 
   179  0215                     	;# 
   180  0216                     	;# 
   181  0216                     	;# 
   182  0217                     	;# 
   183  0217                     	;# 
   184  0219                     	;# 
   185  021A                     	;# 
   186  021B                     	;# 
   187  021C                     	;# 
   188  021D                     	;# 
   189  021E                     	;# 
   190  021F                     	;# 
   191  0291                     	;# 
   192  0291                     	;# 
   193  0292                     	;# 
   194  0293                     	;# 
   195  0294                     	;# 
   196  0295                     	;# 
   197  0295                     	;# 
   198  0296                     	;# 
   199  0298                     	;# 
   200  0298                     	;# 
   201  0299                     	;# 
   202  029A                     	;# 
   203  029B                     	;# 
   204  029C                     	;# 
   205  029C                     	;# 
   206  029D                     	;# 
   207  029E                     	;# 
   208  029E                     	;# 
   209  0311                     	;# 
   210  0311                     	;# 
   211  0312                     	;# 
   212  0313                     	;# 
   213  0318                     	;# 
   214  0318                     	;# 
   215  0319                     	;# 
   216  031A                     	;# 
   217  0394                     	;# 
   218  0395                     	;# 
   219  0396                     	;# 
   220  039A                     	;# 
   221  039C                     	;# 
   222  039D                     	;# 
   223  039E                     	;# 
   224  039F                     	;# 
   225  0415                     	;# 
   226  0416                     	;# 
   227  0417                     	;# 
   228  041C                     	;# 
   229  041D                     	;# 
   230  041E                     	;# 
   231  0FE4                     	;# 
   232  0FE5                     	;# 
   233  0FE6                     	;# 
   234  0FE7                     	;# 
   235  0FE8                     	;# 
   236  0FE9                     	;# 
   237  0FEA                     	;# 
   238  0FEB                     	;# 
   239  0FED                     	;# 
   240  0FEE                     	;# 
   241  0FEF                     	;# 
   242  0000                     	;# 
   243  0001                     	;# 
   244  0002                     	;# 
   245  0003                     	;# 
   246  0004                     	;# 
   247  0005                     	;# 
   248  0006                     	;# 
   249  0007                     	;# 
   250  0008                     	;# 
   251  0009                     	;# 
   252  000A                     	;# 
   253  000B                     	;# 
   254  000C                     	;# 
   255  000D                     	;# 
   256  0011                     	;# 
   257  0012                     	;# 
   258  0013                     	;# 
   259  0014                     	;# 
   260  0015                     	;# 
   261  0016                     	;# 
   262  0016                     	;# 
   263  0017                     	;# 
   264  0018                     	;# 
   265  0019                     	;# 
   266  001A                     	;# 
   267  001B                     	;# 
   268  001C                     	;# 
   269  001E                     	;# 
   270  001F                     	;# 
   271  008C                     	;# 
   272  008D                     	;# 
   273  0091                     	;# 
   274  0092                     	;# 
   275  0093                     	;# 
   276  0094                     	;# 
   277  0095                     	;# 
   278  0096                     	;# 
   279  0097                     	;# 
   280  0098                     	;# 
   281  0099                     	;# 
   282  009A                     	;# 
   283  009B                     	;# 
   284  009B                     	;# 
   285  009C                     	;# 
   286  009D                     	;# 
   287  009E                     	;# 
   288  010C                     	;# 
   289  010D                     	;# 
   290  0111                     	;# 
   291  0112                     	;# 
   292  0113                     	;# 
   293  0114                     	;# 
   294  0115                     	;# 
   295  0116                     	;# 
   296  0117                     	;# 
   297  0118                     	;# 
   298  0119                     	;# 
   299  011A                     	;# 
   300  011B                     	;# 
   301  011D                     	;# 
   302  011E                     	;# 
   303  018C                     	;# 
   304  018D                     	;# 
   305  0191                     	;# 
   306  0191                     	;# 
   307  0192                     	;# 
   308  0193                     	;# 
   309  0193                     	;# 
   310  0193                     	;# 
   311  0194                     	;# 
   312  0195                     	;# 
   313  0196                     	;# 
   314  0199                     	;# 
   315  019A                     	;# 
   316  019B                     	;# 
   317  019B                     	;# 
   318  019B                     	;# 
   319  019B                     	;# 
   320  019C                     	;# 
   321  019C                     	;# 
   322  019D                     	;# 
   323  019E                     	;# 
   324  019F                     	;# 
   325  020C                     	;# 
   326  020D                     	;# 
   327  0211                     	;# 
   328  0211                     	;# 
   329  0212                     	;# 
   330  0212                     	;# 
   331  0213                     	;# 
   332  0213                     	;# 
   333  0214                     	;# 
   334  0214                     	;# 
   335  0215                     	;# 
   336  0215                     	;# 
   337  0215                     	;# 
   338  0216                     	;# 
   339  0216                     	;# 
   340  0217                     	;# 
   341  0217                     	;# 
   342  0219                     	;# 
   343  021A                     	;# 
   344  021B                     	;# 
   345  021C                     	;# 
   346  021D                     	;# 
   347  021E                     	;# 
   348  021F                     	;# 
   349  0291                     	;# 
   350  0291                     	;# 
   351  0292                     	;# 
   352  0293                     	;# 
   353  0294                     	;# 
   354  0295                     	;# 
   355  0295                     	;# 
   356  0296                     	;# 
   357  0298                     	;# 
   358  0298                     	;# 
   359  0299                     	;# 
   360  029A                     	;# 
   361  029B                     	;# 
   362  029C                     	;# 
   363  029C                     	;# 
   364  029D                     	;# 
   365  029E                     	;# 
   366  029E                     	;# 
   367  0311                     	;# 
   368  0311                     	;# 
   369  0312                     	;# 
   370  0313                     	;# 
   371  0318                     	;# 
   372  0318                     	;# 
   373  0319                     	;# 
   374  031A                     	;# 
   375  0394                     	;# 
   376  0395                     	;# 
   377  0396                     	;# 
   378  039A                     	;# 
   379  039C                     	;# 
   380  039D                     	;# 
   381  039E                     	;# 
   382  039F                     	;# 
   383  0415                     	;# 
   384  0416                     	;# 
   385  0417                     	;# 
   386  041C                     	;# 
   387  041D                     	;# 
   388  041E                     	;# 
   389  0FE4                     	;# 
   390  0FE5                     	;# 
   391  0FE6                     	;# 
   392  0FE7                     	;# 
   393  0FE8                     	;# 
   394  0FE9                     	;# 
   395  0FEA                     	;# 
   396  0FEB                     	;# 
   397  0FED                     	;# 
   398  0FEE                     	;# 
   399  0FEF                     	;# 
   400  0000                     	;# 
   401  0001                     	;# 
   402  0002                     	;# 
   403  0003                     	;# 
   404  0004                     	;# 
   405  0005                     	;# 
   406  0006                     	;# 
   407  0007                     	;# 
   408  0008                     	;# 
   409  0009                     	;# 
   410  000A                     	;# 
   411  000B                     	;# 
   412  000C                     	;# 
   413  000D                     	;# 
   414  0011                     	;# 
   415  0012                     	;# 
   416  0013                     	;# 
   417  0014                     	;# 
   418  0015                     	;# 
   419  0016                     	;# 
   420  0016                     	;# 
   421  0017                     	;# 
   422  0018                     	;# 
   423  0019                     	;# 
   424  001A                     	;# 
   425  001B                     	;# 
   426  001C                     	;# 
   427  001E                     	;# 
   428  001F                     	;# 
   429  008C                     	;# 
   430  008D                     	;# 
   431  0091                     	;# 
   432  0092                     	;# 
   433  0093                     	;# 
   434  0094                     	;# 
   435  0095                     	;# 
   436  0096                     	;# 
   437  0097                     	;# 
   438  0098                     	;# 
   439  0099                     	;# 
   440  009A                     	;# 
   441  009B                     	;# 
   442  009B                     	;# 
   443  009C                     	;# 
   444  009D                     	;# 
   445  009E                     	;# 
   446  010C                     	;# 
   447  010D                     	;# 
   448  0111                     	;# 
   449  0112                     	;# 
   450  0113                     	;# 
   451  0114                     	;# 
   452  0115                     	;# 
   453  0116                     	;# 
   454  0117                     	;# 
   455  0118                     	;# 
   456  0119                     	;# 
   457  011A                     	;# 
   458  011B                     	;# 
   459  011D                     	;# 
   460  011E                     	;# 
   461  018C                     	;# 
   462  018D                     	;# 
   463  0191                     	;# 
   464  0191                     	;# 
   465  0192                     	;# 
   466  0193                     	;# 
   467  0193                     	;# 
   468  0193                     	;# 
   469  0194                     	;# 
   470  0195                     	;# 
   471  0196                     	;# 
   472  0199                     	;# 
   473  019A                     	;# 
   474  019B                     	;# 
   475  019B                     	;# 
   476  019B                     	;# 
   477  019B                     	;# 
   478  019C                     	;# 
   479  019C                     	;# 
   480  019D                     	;# 
   481  019E                     	;# 
   482  019F                     	;# 
   483  020C                     	;# 
   484  020D                     	;# 
   485  0211                     	;# 
   486  0211                     	;# 
   487  0212                     	;# 
   488  0212                     	;# 
   489  0213                     	;# 
   490  0213                     	;# 
   491  0214                     	;# 
   492  0214                     	;# 
   493  0215                     	;# 
   494  0215                     	;# 
   495  0215                     	;# 
   496  0216                     	;# 
   497  0216                     	;# 
   498  0217                     	;# 
   499  0217                     	;# 
   500  0219                     	;# 
   501  021A                     	;# 
   502  021B                     	;# 
   503  021C                     	;# 
   504  021D                     	;# 
   505  021E                     	;# 
   506  021F                     	;# 
   507  0291                     	;# 
   508  0291                     	;# 
   509  0292                     	;# 
   510  0293                     	;# 
   511  0294                     	;# 
   512  0295                     	;# 
   513  0295                     	;# 
   514  0296                     	;# 
   515  0298                     	;# 
   516  0298                     	;# 
   517  0299                     	;# 
   518  029A                     	;# 
   519  029B                     	;# 
   520  029C                     	;# 
   521  029C                     	;# 
   522  029D                     	;# 
   523  029E                     	;# 
   524  029E                     	;# 
   525  0311                     	;# 
   526  0311                     	;# 
   527  0312                     	;# 
   528  0313                     	;# 
   529  0318                     	;# 
   530  0318                     	;# 
   531  0319                     	;# 
   532  031A                     	;# 
   533  0394                     	;# 
   534  0395                     	;# 
   535  0396                     	;# 
   536  039A                     	;# 
   537  039C                     	;# 
   538  039D                     	;# 
   539  039E                     	;# 
   540  039F                     	;# 
   541  0415                     	;# 
   542  0416                     	;# 
   543  0417                     	;# 
   544  041C                     	;# 
   545  041D                     	;# 
   546  041E                     	;# 
   547  0FE4                     	;# 
   548  0FE5                     	;# 
   549  0FE6                     	;# 
   550  0FE7                     	;# 
   551  0FE8                     	;# 
   552  0FE9                     	;# 
   553  0FEA                     	;# 
   554  0FEB                     	;# 
   555  0FED                     	;# 
   556  0FEE                     	;# 
   557  0FEF                     	;# 
   558                           
   559                           	psect	idataBANK0
   560  0CB5                     __pidataBANK0:	
   561                           
   562                           ;initializer for LCD_SetCursor@F2852
   563  0CB5  3400               	retlw	0
   564  0CB6  3400               	retlw	0
   565  0CB7  3440               	retlw	64
   566  0CB8  3400               	retlw	0
   567                           
   568                           	psect	stringtext1
   569  07FD                     __pstringtext1:	
   570  07FD                     _dpowers:	
   571  07FD  3401               	retlw	1
   572  07FE  3400               	retlw	0
   573  07FF  3400               	retlw	0
   574  0800  3400               	retlw	0
   575  0801  340A               	retlw	10
   576  0802  3400               	retlw	0
   577  0803  3400               	retlw	0
   578  0804  3400               	retlw	0
   579  0805  3464               	retlw	100
   580  0806  3400               	retlw	0
   581  0807  3400               	retlw	0
   582  0808  3400               	retlw	0
   583  0809  34E8               	retlw	232
   584  080A  3403               	retlw	3
   585  080B  3400               	retlw	0
   586  080C  3400               	retlw	0
   587  080D  3410               	retlw	16
   588  080E  3427               	retlw	39
   589  080F  3400               	retlw	0
   590  0810  3400               	retlw	0
   591  0811  34A0               	retlw	160
   592  0812  3486               	retlw	134
   593  0813  3401               	retlw	1
   594  0814  3400               	retlw	0
   595  0815  3440               	retlw	64
   596  0816  3442               	retlw	66
   597  0817  340F               	retlw	15
   598  0818  3400               	retlw	0
   599  0819  3480               	retlw	128
   600  081A  3496               	retlw	150
   601  081B  3498               	retlw	152
   602  081C  3400               	retlw	0
   603  081D  3400               	retlw	0
   604  081E  34E1               	retlw	225
   605  081F  34F5               	retlw	245
   606  0820  3405               	retlw	5
   607  0821  3400               	retlw	0
   608  0822  34CA               	retlw	202
   609  0823  349A               	retlw	154
   610  0824  343B               	retlw	59
   611  0825                     __end_of_dpowers:	
   612                           
   613                           	psect	nvBANK0
   614  005D                     __pnvBANK0:	
   615  005D                     _odo:	
   616  005D                     	ds	4
   617  0061                     _pulse:	
   618  0061                     	ds	2
   619  001B                     _PR2	set	27
   620  001C                     _T2CON	set	28
   621  0018                     _T1CON	set	24
   622  000B                     _INTCON	set	11
   623  000D                     _PORTB	set	13
   624  000C                     _PORTA	set	12
   625  0016                     _TMR1L	set	22
   626  0017                     _TMR1H	set	23
   627  0018                     _CARRY	set	24
   628  006B                     _RB3	set	107
   629  0099                     _TMR4IF	set	153
   630  0061                     _RA1	set	97
   631  006F                     _RB7	set	111
   632  0089                     _TMR2IF	set	137
   633  0088                     _TMR1IF	set	136
   634  0095                     _C1IF	set	149
   635  005F                     _GIE	set	95
   636  005E                     _PEIE	set	94
   637  0093                     _BCL1IF	set	147
   638  008B                     _SSP1IF	set	139
   639  008D                     _TRISB	set	141
   640  008C                     _TRISA	set	140
   641  0095                     _OPTION_REG	set	149
   642  0099                     _OSCCON	set	153
   643  0499                     _TMR4IE	set	1177
   644  0489                     _TMR2IE	set	1161
   645  0488                     _TMR1IE	set	1160
   646  0495                     _C1IE	set	1173
   647  0493                     _BCL1IE	set	1171
   648  048B                     _SSP1IE	set	1163
   649  0112                     _CM1CON1	set	274
   650  0111                     _CM1CON0	set	273
   651  0119                     _DACCON1	set	281
   652  0118                     _DACCON0	set	280
   653  088E                     _C1OUT	set	2190
   654  0191                     _EEADR	set	401
   655  0196                     _EECON2	set	406
   656  0193                     _EEDATA	set	403
   657  0195                     _EECON1	set	405
   658  018D                     _ANSELB	set	397
   659  018C                     _ANSELA	set	396
   660  0CAA                     _WREN	set	3242
   661  0CA9                     _WR	set	3241
   662  0CA8                     _RD	set	3240
   663  020D                     _WPUB	set	525
   664  0211                     _SSP1BUF	set	529
   665  0216                     _SSP1CON2bits	set	534
   666  0214                     _SSP1STATbits	set	532
   667  0212                     _SSP1ADD	set	530
   668  0215                     _SSP1CON1	set	533
   669  0214                     _SSP1STAT	set	532
   670  0216                     _SSP1CON2	set	534
   671  0417                     _T4CON	set	1047
   672  0415                     _TMR4	set	1045
   673  0416                     _PR4	set	1046
   674  20BA                     _TMR4ON	set	8378
   675                           
   676                           	psect	stringtext2
   677  0825                     __pstringtext2:	
   678  0825                     STR_4:	
   679  0825  344F               	retlw	79	;'O'
   680  0826  3444               	retlw	68	;'D'
   681  0827  344F               	retlw	79	;'O'
   682  0828  3420               	retlw	32	;' '
   683  0829  3420               	retlw	32	;' '
   684  082A  3453               	retlw	83	;'S'
   685  082B  3450               	retlw	80	;'P'
   686  082C  3444               	retlw	68	;'D'
   687  082D  3400               	retlw	0
   688                           
   689                           	psect	stringtext3
   690  082E                     __pstringtext3:	
   691  082E                     STR_3:	
   692  082E  3425               	retlw	37	;'%'
   693  082F  3430               	retlw	48	;'0'
   694  0830  3435               	retlw	53	;'5'
   695  0831  346C               	retlw	108	;'l'
   696  0832  3475               	retlw	117	;'u'
   697  0833  3425               	retlw	37	;'%'
   698  0834  3433               	retlw	51	;'3'
   699  0835  3475               	retlw	117	;'u'
   700  0836  3400               	retlw	0
   701                           
   702                           	psect	stringtext4
   703  0837                     __pstringtext4:	
   704  0837                     STR_2:	
   705  0837  3445               	retlw	69	;'E'
   706  0838  3456               	retlw	86	;'V'
   707  0839  344F               	retlw	79	;'O'
   708  083A  344C               	retlw	76	;'L'
   709  083B  3456               	retlw	86	;'V'
   710  083C  3445               	retlw	69	;'E'
   711  083D  3444               	retlw	68	;'D'
   712  083E  3400               	retlw	0
   713                           
   714                           	psect	stringtext5
   715  083F                     __pstringtext5:	
   716  083F                     STR_5:	
   717  083F  344D               	retlw	77	;'M'
   718  0840  344F               	retlw	79	;'O'
   719  0841  3456               	retlw	86	;'V'
   720  0842  3441               	retlw	65	;'A'
   721  0843  3442               	retlw	66	;'B'
   722  0844  344C               	retlw	76	;'L'
   723  0845  3445               	retlw	69	;'E'
   724  0846  3400               	retlw	0
   725                           
   726                           	psect	stringtext6
   727  0847                     __pstringtext6:	
   728  0847                     STR_1:	
   729  0847  3453               	retlw	83	;'S'
   730  0848  3454               	retlw	84	;'T'
   731  0849  3452               	retlw	82	;'R'
   732  084A  3445               	retlw	69	;'E'
   733  084B  3441               	retlw	65	;'A'
   734  084C  344D               	retlw	77	;'M'
   735  084D  3400               	retlw	0
   736                           
   737                           	psect	stringtext7
   738  084E                     __pstringtext7:	
   739  084E                     STR_6:	
   740  084E  3453               	retlw	83	;'S'
   741  084F  3454               	retlw	84	;'T'
   742  0850  3455               	retlw	85	;'U'
   743  0851  3446               	retlw	70	;'F'
   744  0852  3446               	retlw	70	;'F'
   745  0853  3400               	retlw	0
   746                           
   747                           	psect	stringtext8
   748  0000                     __pstringtext8:	
   749                           
   750                           ; #config settings
   751  0000                     
   752                           	psect	cinit
   753  00EE                     start_initialization:	
   754  00EE                     __initialization:	
   755                           
   756                           ; Initialize objects allocated to BANK0
   757  00EE  318C  24B5  3180   	fcall	__pidataBANK0	;fetch initializer
   758  00F1  00E3               	movwf	__pdataBANK0& (0+127)
   759  00F2  318C  24B6  3180   	fcall	__pidataBANK0+1	;fetch initializer
   760  00F5  00E4               	movwf	(__pdataBANK0+1)& (0+127)
   761  00F6  318C  24B7  3180   	fcall	__pidataBANK0+2	;fetch initializer
   762  00F9  00E5               	movwf	(__pdataBANK0+2)& (0+127)
   763  00FA  318C  24B8         	fcall	__pidataBANK0+3	;fetch initializer
   764  00FC  00E6               	movwf	(__pdataBANK0+3)& (0+127)
   765                           
   766                           ; Clear objects allocated to COMMON
   767  00FD  01FC               	clrf	__pbssCOMMON& (0+127)
   768  00FE  01FD               	clrf	(__pbssCOMMON+1)& (0+127)
   769                           
   770                           ; Clear objects allocated to BANK0
   771  00FF  01D3               	clrf	__pbssBANK0& (0+127)
   772  0100  01D4               	clrf	(__pbssBANK0+1)& (0+127)
   773  0101  01D5               	clrf	(__pbssBANK0+2)& (0+127)
   774  0102  01D6               	clrf	(__pbssBANK0+3)& (0+127)
   775  0103  01D7               	clrf	(__pbssBANK0+4)& (0+127)
   776  0104  01D8               	clrf	(__pbssBANK0+5)& (0+127)
   777  0105  01D9               	clrf	(__pbssBANK0+6)& (0+127)
   778  0106  01DA               	clrf	(__pbssBANK0+7)& (0+127)
   779  0107  01DB               	clrf	(__pbssBANK0+8)& (0+127)
   780  0108  01DC               	clrf	(__pbssBANK0+9)& (0+127)
   781                           
   782                           ; Clear objects allocated to BANK1
   783  0109  0021               	movlb	1	; select bank1
   784  010A  01E9               	clrf	__pbssBANK1& (0+127)
   785  010B  01EA               	clrf	(__pbssBANK1+1)& (0+127)
   786  010C  01EB               	clrf	(__pbssBANK1+2)& (0+127)
   787  010D  01EC               	clrf	(__pbssBANK1+3)& (0+127)
   788  010E  01ED               	clrf	(__pbssBANK1+4)& (0+127)
   789  010F  01EE               	clrf	(__pbssBANK1+5)& (0+127)
   790  0110                     end_of_initialization:	
   791                           ;End of C runtime variable initialization code
   792                           
   793  0110                     __end_of__initialization:	
   794  0110  107E               	bcf	int$flags,0	;clear compiler interrupt flag (level 1)
   795  0111  0020               	movlb	0
   796  0112  3181  2914         	ljmp	_main	;jump to C main() function
   797                           
   798                           	psect	bssCOMMON
   799  007C                     __pbssCOMMON:	
   800  007C                     _LCD_ColumnSu:	
   801  007C                     	ds	2
   802                           
   803                           	psect	bssBANK0
   804  0053                     __pbssBANK0:	
   805  0053                     InterFunction@spdpl:	
   806  0053                     	ds	2
   807  0055                     _spdval:	
   808  0055                     	ds	2
   809  0057                     _AckCheck:	
   810  0057                     	ds	2
   811  0059                     _ContSet_DT:	
   812  0059                     	ds	2
   813  005B                     InterFunction@widbuf:	
   814  005B                     	ds	1
   815  005C                     InterFunction@width:	
   816  005C                     	ds	1
   817                           
   818                           	psect	dataBANK0
   819  0063                     __pdataBANK0:	
   820  0063                     LCD_SetCursor@F2852:	
   821  0063                     	ds	4
   822                           
   823                           	psect	bssBANK1
   824  00E9                     __pbssBANK1:	
   825  00E9                     _CollisionCheck:	
   826  00E9                     	ds	2
   827  00EB                     _FuncSet_DT:	
   828  00EB                     	ds	2
   829  00ED                     _LCD_NowPage:	
   830  00ED                     	ds	2
   831                           
   832                           	psect	cstackBANK1
   833  00A0                     __pcstackBANK1:	
   834  00A0                     ??_isdigit:	
   835  00A0                     ?_Wait10ms:	
   836                           ; 1 bytes @ 0x0
   837                           
   838  00A0                     ??_Wait27us:	
   839                           ; 1 bytes @ 0x0
   840                           
   841  00A0                     ??_I2C_IdleCheck:	
   842                           ; 1 bytes @ 0x0
   843                           
   844  00A0                     ?_InitI2C_Master:	
   845                           ; 1 bytes @ 0x0
   846                           
   847  00A0                     ?___wmul:	
   848                           ; 1 bytes @ 0x0
   849                           
   850  00A0                     ?___lldiv:	
   851                           ; 2 bytes @ 0x0
   852                           
   853  00A0                     _isdigit$517:	
   854                           ; 4 bytes @ 0x0
   855                           
   856  00A0                     Wait10ms@num:	
   857                           ; 1 bytes @ 0x0
   858                           
   859  00A0                     InitI2C_Master@speed:	
   860                           ; 2 bytes @ 0x0
   861                           
   862  00A0                     ___wmul@multiplier:	
   863                           ; 2 bytes @ 0x0
   864                           
   865  00A0                     ___lldiv@divisor:	
   866                           ; 2 bytes @ 0x0
   867                           
   868                           
   869                           ; 4 bytes @ 0x0
   870  00A0                     	ds	1
   871  00A1                     I2C_IdleCheck@mask:	
   872  00A1                     isdigit@c:	
   873                           ; 1 bytes @ 0x1
   874                           
   875                           
   876                           ; 1 bytes @ 0x1
   877  00A1                     	ds	1
   878  00A2                     ??_I2C_Send:	
   879  00A2                     ??_I2C_Stop:	
   880                           ; 1 bytes @ 0x2
   881                           
   882  00A2                     ??_Wait10ms:	
   883                           ; 1 bytes @ 0x2
   884                           
   885  00A2                     ??_InitI2C_Master:	
   886                           ; 1 bytes @ 0x2
   887                           
   888  00A2                     ?_I2C_Start:	
   889                           ; 1 bytes @ 0x2
   890                           
   891  00A2                     I2C_Send@dt:	
   892                           ; 2 bytes @ 0x2
   893                           
   894  00A2                     I2C_Start@adrs:	
   895                           ; 1 bytes @ 0x2
   896                           
   897  00A2                     ___wmul@multiplicand:	
   898                           ; 2 bytes @ 0x2
   899                           
   900                           
   901                           ; 2 bytes @ 0x2
   902  00A2                     	ds	2
   903  00A4                     ??___wmul:	
   904  00A4                     I2C_Start@rw:	
   905                           ; 1 bytes @ 0x4
   906                           
   907  00A4                     ___wmul@product:	
   908                           ; 2 bytes @ 0x4
   909                           
   910  00A4                     ___lldiv@dividend:	
   911                           ; 2 bytes @ 0x4
   912                           
   913                           
   914                           ; 4 bytes @ 0x4
   915  00A4                     	ds	2
   916  00A6                     ??_I2C_Start:	
   917                           
   918                           ; 1 bytes @ 0x6
   919  00A6                     	ds	2
   920  00A8                     ??_command:	
   921  00A8                     ?_LCD_Puts:	
   922                           ; 1 bytes @ 0x8
   923                           
   924  00A8                     ??___lldiv:	
   925                           ; 1 bytes @ 0x8
   926                           
   927  00A8                     command@ans:	
   928                           ; 1 bytes @ 0x8
   929                           
   930  00A8                     LCD_Puts@s:	
   931                           ; 2 bytes @ 0x8
   932                           
   933                           
   934                           ; 2 bytes @ 0x8
   935  00A8                     	ds	1
   936  00A9                     ___lldiv@quotient:	
   937                           
   938                           ; 4 bytes @ 0x9
   939  00A9                     	ds	1
   940  00AA                     ??_LCD_Puts:	
   941  00AA                     command@c:	
   942                           ; 1 bytes @ 0xA
   943                           
   944                           
   945                           ; 1 bytes @ 0xA
   946  00AA                     	ds	1
   947  00AB                     ??_LCD_Clear:	
   948  00AB                     ?_LCD_SetCursor:	
   949                           ; 1 bytes @ 0xB
   950                           
   951  00AB                     LCD_SetCursor@col:	
   952                           ; 1 bytes @ 0xB
   953                           
   954  00AB                     LCD_Puts@ans:	
   955                           ; 2 bytes @ 0xB
   956                           
   957                           
   958                           ; 2 bytes @ 0xB
   959  00AB                     	ds	1
   960  00AC                     ?_LCD_Init:	
   961  00AC                     LCD_Init@icon:	
   962                           ; 1 bytes @ 0xC
   963                           
   964                           
   965                           ; 2 bytes @ 0xC
   966  00AC                     	ds	1
   967  00AD                     ___lldiv@counter:	
   968  00AD                     LCD_SetCursor@row:	
   969                           ; 1 bytes @ 0xD
   970                           
   971                           
   972                           ; 2 bytes @ 0xD
   973  00AD                     	ds	1
   974  00AE                     ?___llmod:	
   975  00AE                     LCD_Init@contrast:	
   976                           ; 4 bytes @ 0xE
   977                           
   978  00AE                     ___llmod@divisor:	
   979                           ; 2 bytes @ 0xE
   980                           
   981                           
   982                           ; 4 bytes @ 0xE
   983  00AE                     	ds	1
   984  00AF                     ??_LCD_SetCursor:	
   985  00AF                     LCD_SetCursor@row_offsets:	
   986                           ; 1 bytes @ 0xF
   987                           
   988                           
   989                           ; 4 bytes @ 0xF
   990  00AF                     	ds	1
   991  00B0                     LCD_Init@bon:	
   992                           
   993                           ; 2 bytes @ 0x10
   994  00B0                     	ds	2
   995  00B2                     LCD_Init@colsu:	
   996  00B2                     ___llmod@dividend:	
   997                           ; 2 bytes @ 0x12
   998                           
   999                           
  1000                           ; 4 bytes @ 0x12
  1001  00B2                     	ds	2
  1002  00B4                     ??_LCD_Init:	
  1003                           
  1004                           ; 1 bytes @ 0x14
  1005  00B4                     	ds	2
  1006  00B6                     ??___llmod:	
  1007                           
  1008                           ; 1 bytes @ 0x16
  1009  00B6                     	ds	1
  1010  00B7                     ___llmod@counter:	
  1011                           
  1012                           ; 1 bytes @ 0x17
  1013  00B7                     	ds	1
  1014  00B8                     ?_sprintf:	
  1015  00B8                     sprintf@f:	
  1016                           ; 2 bytes @ 0x18
  1017                           
  1018                           
  1019                           ; 2 bytes @ 0x18
  1020  00B8                     	ds	1
  1021  00B9                     LCD_Init@d:	
  1022                           
  1023                           ; 2 bytes @ 0x19
  1024  00B9                     	ds	7
  1025  00C0                     ??_sprintf:	
  1026                           
  1027                           ; 1 bytes @ 0x20
  1028  00C0                     	ds	6
  1029  00C6                     sprintf@prec:	
  1030                           
  1031                           ; 2 bytes @ 0x26
  1032  00C6                     	ds	2
  1033  00C8                     sprintf@val:	
  1034                           
  1035                           ; 4 bytes @ 0x28
  1036  00C8                     	ds	4
  1037  00CC                     sprintf@ap:	
  1038                           
  1039                           ; 1 bytes @ 0x2C
  1040  00CC                     	ds	1
  1041  00CD                     sprintf@flag:	
  1042                           
  1043                           ; 1 bytes @ 0x2D
  1044  00CD                     	ds	1
  1045  00CE                     sprintf@sp:	
  1046                           
  1047                           ; 1 bytes @ 0x2E
  1048  00CE                     	ds	1
  1049  00CF                     sprintf@width:	
  1050                           
  1051                           ; 2 bytes @ 0x2F
  1052  00CF                     	ds	2
  1053  00D1                     sprintf@c:	
  1054                           
  1055                           ; 1 bytes @ 0x31
  1056  00D1                     	ds	1
  1057  00D2                     ??_main:	
  1058                           
  1059                           ; 1 bytes @ 0x32
  1060  00D2                     	ds	8
  1061  00DA                     main@lcd:	
  1062                           
  1063                           ; 8 bytes @ 0x3A
  1064  00DA                     	ds	8
  1065  00E2                     main@od1:	
  1066                           
  1067                           ; 1 bytes @ 0x42
  1068  00E2                     	ds	1
  1069  00E3                     main@od2:	
  1070                           
  1071                           ; 1 bytes @ 0x43
  1072  00E3                     	ds	1
  1073  00E4                     main@od3:	
  1074                           
  1075                           ; 1 bytes @ 0x44
  1076  00E4                     	ds	1
  1077  00E5                     main@pl1:	
  1078                           
  1079                           ; 1 bytes @ 0x45
  1080  00E5                     	ds	1
  1081  00E6                     main@pl2:	
  1082                           
  1083                           ; 1 bytes @ 0x46
  1084  00E6                     	ds	1
  1085  00E7                     main@sw:	
  1086                           
  1087                           ; 2 bytes @ 0x47
  1088  00E7                     	ds	2
  1089                           
  1090                           	psect	cstackCOMMON
  1091  0070                     __pcstackCOMMON:	
  1092  0070                     ?_isdigit:	
  1093  0070                     ?_Wait27us:	
  1094                           ; 1 bit 
  1095                           
  1096  0070                     ?_command:	
  1097                           ; 1 bytes @ 0x0
  1098                           
  1099  0070                     ?_LCD_Clear:	
  1100                           ; 1 bytes @ 0x0
  1101                           
  1102  0070                     ?_I2C_IdleCheck:	
  1103                           ; 1 bytes @ 0x0
  1104                           
  1105  0070                     ?_InterI2C:	
  1106                           ; 1 bytes @ 0x0
  1107                           
  1108  0070                     ??_InterI2C:	
  1109                           ; 1 bytes @ 0x0
  1110                           
  1111  0070                     ?_main:	
  1112                           ; 1 bytes @ 0x0
  1113                           
  1114  0070                     ?_I2C_Send:	
  1115                           ; 1 bytes @ 0x0
  1116                           
  1117  0070                     ?_I2C_Stop:	
  1118                           ; 2 bytes @ 0x0
  1119                           
  1120  0070                     ?_InterFunction:	
  1121                           ; 2 bytes @ 0x0
  1122                           
  1123  0070                     ?___ftpack:	
  1124                           ; 2 bytes @ 0x0
  1125                           
  1126  0070                     ___ftpack@arg:	
  1127                           ; 3 bytes @ 0x0
  1128                           
  1129                           
  1130                           ; 3 bytes @ 0x0
  1131  0070                     	ds	3
  1132  0073                     ___ftpack@exp:	
  1133                           
  1134                           ; 1 bytes @ 0x3
  1135  0073                     	ds	1
  1136  0074                     ___ftpack@sign:	
  1137                           
  1138                           ; 1 bytes @ 0x4
  1139  0074                     	ds	1
  1140  0075                     ??___ftpack:	
  1141                           
  1142                           ; 1 bytes @ 0x5
  1143  0075                     	ds	3
  1144  0078                     ?___lwtoft:	
  1145  0078                     ___lwtoft@c:	
  1146                           ; 3 bytes @ 0x8
  1147                           
  1148                           
  1149                           ; 2 bytes @ 0x8
  1150  0078                     	ds	3
  1151  007B                     ??___lwtoft:	
  1152                           
  1153                           ; 1 bytes @ 0xB
  1154  007B                     	ds	1
  1155  007C                     ??___ftneg:	
  1156                           
  1157                           	psect	cstackBANK0
  1158  0020                     __pcstackBANK0:	
  1159                           ; 1 bytes @ 0xC
  1160                           
  1161  0020                     ?___ftmul:	
  1162  0020                     ___ftmul@f1:	
  1163                           ; 3 bytes @ 0x0
  1164                           
  1165                           
  1166                           ; 3 bytes @ 0x0
  1167  0020                     	ds	3
  1168  0023                     ___ftmul@f2:	
  1169                           
  1170                           ; 3 bytes @ 0x3
  1171  0023                     	ds	3
  1172  0026                     ??___ftmul:	
  1173                           
  1174                           ; 1 bytes @ 0x6
  1175  0026                     	ds	4
  1176  002A                     ___ftmul@exp:	
  1177                           
  1178                           ; 1 bytes @ 0xA
  1179  002A                     	ds	1
  1180  002B                     ___ftmul@f3_as_product:	
  1181                           
  1182                           ; 3 bytes @ 0xB
  1183  002B                     	ds	3
  1184  002E                     ___ftmul@cntr:	
  1185                           
  1186                           ; 1 bytes @ 0xE
  1187  002E                     	ds	1
  1188  002F                     ___ftmul@sign:	
  1189                           
  1190                           ; 1 bytes @ 0xF
  1191  002F                     	ds	1
  1192  0030                     ?___ftneg:	
  1193  0030                     ___ftneg@f1:	
  1194                           ; 3 bytes @ 0x10
  1195                           
  1196                           
  1197                           ; 3 bytes @ 0x10
  1198  0030                     	ds	3
  1199  0033                     ?___ftadd:	
  1200  0033                     ___ftadd@f1:	
  1201                           ; 3 bytes @ 0x13
  1202                           
  1203                           
  1204                           ; 3 bytes @ 0x13
  1205  0033                     	ds	3
  1206  0036                     ___ftadd@f2:	
  1207                           
  1208                           ; 3 bytes @ 0x16
  1209  0036                     	ds	3
  1210  0039                     ??___ftadd:	
  1211                           
  1212                           ; 1 bytes @ 0x19
  1213  0039                     	ds	4
  1214  003D                     ___ftadd@sign:	
  1215                           
  1216                           ; 1 bytes @ 0x1D
  1217  003D                     	ds	1
  1218  003E                     ___ftadd@exp2:	
  1219                           
  1220                           ; 1 bytes @ 0x1E
  1221  003E                     	ds	1
  1222  003F                     ___ftadd@exp1:	
  1223                           
  1224                           ; 1 bytes @ 0x1F
  1225  003F                     	ds	1
  1226  0040                     ?___fttol:	
  1227  0040                     ___fttol@f1:	
  1228                           ; 4 bytes @ 0x20
  1229                           
  1230                           
  1231                           ; 3 bytes @ 0x20
  1232  0040                     	ds	4
  1233  0044                     ??___fttol:	
  1234                           
  1235                           ; 1 bytes @ 0x24
  1236  0044                     	ds	4
  1237  0048                     ___fttol@sign1:	
  1238                           
  1239                           ; 1 bytes @ 0x28
  1240  0048                     	ds	1
  1241  0049                     ___fttol@lval:	
  1242                           
  1243                           ; 4 bytes @ 0x29
  1244  0049                     	ds	4
  1245  004D                     ___fttol@exp1:	
  1246                           
  1247                           ; 1 bytes @ 0x2D
  1248  004D                     	ds	1
  1249  004E                     ??_InterFunction:	
  1250                           
  1251                           ; 1 bytes @ 0x2E
  1252  004E                     	ds	5
  1253                           
  1254                           	psect	maintext
  1255  0114                     __pmaintext:	
  1256 ;;
  1257 ;;Main: autosize = 0, tempsize = 8, incstack = 0, save=0
  1258 ;;
  1259 ;; *************** function _main *****************
  1260 ;; Defined at:
  1261 ;;		line 128 in file "source1.c"
  1262 ;; Parameters:    Size  Location     Type
  1263 ;;		None
  1264 ;; Auto vars:     Size  Location     Type
  1265 ;;  lcd             8   58[BANK1 ] unsigned char [8]
  1266 ;;  sw              2   71[BANK1 ] unsigned int 
  1267 ;;  pl2             1   70[BANK1 ] unsigned char 
  1268 ;;  pl1             1   69[BANK1 ] unsigned char 
  1269 ;;  od3             1   68[BANK1 ] unsigned char 
  1270 ;;  od2             1   67[BANK1 ] unsigned char 
  1271 ;;  od1             1   66[BANK1 ] unsigned char 
  1272 ;; Return value:  Size  Location     Type
  1273 ;;                  1    wreg      void 
  1274 ;; Registers used:
  1275 ;;		wreg, fsr0l, fsr0h, fsr1l, fsr1h, status,2, status,0, pclath, cstack
  1276 ;; Tracked objects:
  1277 ;;		On entry : B1F/0
  1278 ;;		On exit  : 0/0
  1279 ;;		Unchanged: 0/0
  1280 ;; Data sizes:     COMMON   BANK0   BANK1   BANK2   BANK3   BANK4
  1281 ;;      Params:         0       0       0       0       0       0
  1282 ;;      Locals:         0       0      15       0       0       0
  1283 ;;      Temps:          0       0       8       0       0       0
  1284 ;;      Totals:         0       0      23       0       0       0
  1285 ;;Total ram usage:       23 bytes
  1286 ;; Hardware stack levels required when called:    8
  1287 ;; This function calls:
  1288 ;;		_InitI2C_Master
  1289 ;;		_LCD_Clear
  1290 ;;		_LCD_Init
  1291 ;;		_LCD_Puts
  1292 ;;		_LCD_SetCursor
  1293 ;;		_sprintf
  1294 ;; This function is called by:
  1295 ;;		Startup code after reset
  1296 ;; This function uses a non-reentrant model
  1297 ;;
  1298                           
  1299                           
  1300                           ;psect for function _main
  1301  0114                     _main:	
  1302                           
  1303                           ;source1.c: 130: OSCCON = 0b00000000 ;
  1304                           
  1305                           ;incstack = 0
  1306                           ; Regs used in _main: [wreg-fsr1h+status,2+status,0+pclath+cstack]
  1307  0114  0021               	movlb	1	; select bank1
  1308  0115  0199               	clrf	25	;volatile
  1309                           
  1310                           ;source1.c: 131: OPTION_REG = 0b00000000 ;
  1311  0116  0195               	clrf	21	;volatile
  1312                           
  1313                           ;source1.c: 132: ANSELA = 0b00000100 ;
  1314  0117  3004               	movlw	4
  1315  0118  0023               	movlb	3	; select bank3
  1316  0119  008C               	movwf	12	;volatile
  1317                           
  1318                           ;source1.c: 133: ANSELB = 0b00000000 ;
  1319  011A  018D               	clrf	13	;volatile
  1320                           
  1321                           ;source1.c: 134: TRISA = 0b00000100 ;
  1322  011B  3004               	movlw	4
  1323  011C  0021               	movlb	1	; select bank1
  1324  011D  008C               	movwf	12	;volatile
  1325                           
  1326                           ;source1.c: 135: TRISB = 0b10010010 ;
  1327  011E  3092               	movlw	146
  1328  011F  008D               	movwf	13	;volatile
  1329                           
  1330                           ;source1.c: 136: WPUB = 0b10000000 ;
  1331  0120  3080               	movlw	128
  1332  0121  0024               	movlb	4	; select bank4
  1333  0122  008D               	movwf	13	;volatile
  1334                           
  1335                           ;source1.c: 137: PORTA = 0b00000000 ;
  1336  0123  0020               	movlb	0	; select bank0
  1337  0124  018C               	clrf	12	;volatile
  1338                           
  1339                           ;source1.c: 138: PORTB = 0b00000000 ;
  1340  0125  018D               	clrf	13	;volatile
  1341                           
  1342                           ;source1.c: 139: INTCON = 0b11011000;
  1343  0126  30D8               	movlw	216
  1344  0127  008B               	movwf	11	;volatile
  1345                           
  1346                           ;source1.c: 140: DACCON0 = 0b11000000 ;
  1347  0128  30C0               	movlw	192
  1348  0129  0022               	movlb	2	; select bank2
  1349  012A  0098               	movwf	24	;volatile
  1350                           
  1351                           ;source1.c: 141: DACCON1 = 6;
  1352  012B  3006               	movlw	6
  1353  012C  0099               	movwf	25	;volatile
  1354                           
  1355                           ;source1.c: 142: CM1CON0 = 0b11010100 ;
  1356  012D  30D4               	movlw	212
  1357  012E  0091               	movwf	17	;volatile
  1358                           
  1359                           ;source1.c: 143: CM1CON1 = 0b11010010 ;
  1360  012F  30D2               	movlw	210
  1361  0130  0092               	movwf	18	;volatile
  1362                           
  1363                           ;source1.c: 144: C1IF = 0 ;
  1364  0131  0020               	movlb	0	; select bank0
  1365  0132  1292               	bcf	18,5	;volatile
  1366                           
  1367                           ;source1.c: 145: C1IE = 1 ;
  1368  0133  0021               	movlb	1	; select bank1
  1369  0134  1692               	bsf	18,5	;volatile
  1370                           
  1371                           ;source1.c: 146: TMR1IF = 0 ;
  1372  0135  0020               	movlb	0	; select bank0
  1373  0136  1011               	bcf	17,0	;volatile
  1374                           
  1375                           ;source1.c: 147: TMR1IE = 1 ;
  1376  0137  0021               	movlb	1	; select bank1
  1377  0138  1411               	bsf	17,0	;volatile
  1378                           
  1379                           ;source1.c: 148: TMR2IF = 0 ;
  1380  0139  0020               	movlb	0	; select bank0
  1381  013A  1091               	bcf	17,1	;volatile
  1382                           
  1383                           ;source1.c: 149: TMR2IE = 1 ;
  1384  013B  0021               	movlb	1	; select bank1
  1385  013C  1491               	bsf	17,1	;volatile
  1386                           
  1387                           ;source1.c: 150: TMR4IF = 0 ;
  1388  013D  0020               	movlb	0	; select bank0
  1389  013E  1093               	bcf	19,1	;volatile
  1390                           
  1391                           ;source1.c: 151: TMR4IE = 1 ;
  1392  013F  0021               	movlb	1	; select bank1
  1393  0140  1493               	bsf	19,1	;volatile
  1394                           
  1395                           ;source1.c: 152: T1CON = 0b00010001;
  1396  0141  3011               	movlw	17
  1397  0142  0020               	movlb	0	; select bank0
  1398  0143  0098               	movwf	24	;volatile
  1399                           
  1400                           ;source1.c: 153: TMR1H = 69 ;
  1401  0144  3045               	movlw	69
  1402  0145  0097               	movwf	23	;volatile
  1403                           
  1404                           ;source1.c: 154: TMR1L = 253 ;
  1405  0146  30FD               	movlw	253
  1406  0147  0096               	movwf	22	;volatile
  1407                           
  1408                           ;source1.c: 155: T2CON = 0b01001110;
  1409  0148  304E               	movlw	78
  1410  0149  009C               	movwf	28	;volatile
  1411                           
  1412                           ;source1.c: 156: PR2 = 247;
  1413  014A  30F7               	movlw	247
  1414  014B  009B               	movwf	27	;volatile
  1415                           
  1416                           ;source1.c: 157: T4CON = 0b00100101;
  1417  014C  3025               	movlw	37
  1418  014D  0028               	movlb	8	; select bank8
  1419  014E  0097               	movwf	23	;volatile
  1420                           
  1421                           ;source1.c: 158: PR4 = 83;
  1422  014F  3053               	movlw	83
  1423  0150  0096               	movwf	22	;volatile
  1424                           
  1425                           ;source1.c: 163: char lcd[8];
  1426                           ;source1.c: 165: odo = ( EEADR = 0x02, EECON1 &= 0x3F, RD = 1, EEDATA);
  1427  0151  3000               	movlw	0
  1428  0152  0023               	movlb	3	; select bank3
  1429  0153  0092               	movwf	18	;volatile
  1430  0154  3002               	movlw	2
  1431  0155  0091               	movwf	17	;volatile
  1432  0156  303F               	movlw	63
  1433  0157  0021               	movlb	1	; select bank1
  1434  0158  00D2               	movwf	??_main^(0+128)
  1435  0159  0852               	movf	??_main^(0+128),w
  1436  015A  0023               	movlb	3	; select bank3
  1437  015B  0595               	andwf	21,f	;volsfr
  1438  015C  1415               	bsf	21,0	;volsfr
  1439  015D  0813               	movf	19,w	;volatile
  1440  015E  0021               	movlb	1	; select bank1
  1441  015F  00D2               	movwf	??_main^(0+128)
  1442  0160  01D3               	clrf	(??_main^(0+128)+1)
  1443  0161  01D4               	clrf	(??_main^(0+128)+2)
  1444  0162  01D5               	clrf	(??_main^(0+128)+3)
  1445  0163  0855               	movf	(??_main+3)^(0+128),w
  1446  0164  0020               	movlb	0	; select bank0
  1447  0165  00E0               	movwf	_odo+3
  1448  0166  0021               	movlb	1	; select bank1
  1449  0167  0854               	movf	(??_main+2)^(0+128),w
  1450  0168  0020               	movlb	0	; select bank0
  1451  0169  00DF               	movwf	_odo+2
  1452  016A  0021               	movlb	1	; select bank1
  1453  016B  0853               	movf	(??_main+1)^(0+128),w
  1454  016C  0020               	movlb	0	; select bank0
  1455  016D  00DE               	movwf	_odo+1
  1456  016E  0021               	movlb	1	; select bank1
  1457  016F  0852               	movf	??_main^(0+128),w
  1458  0170  0020               	movlb	0	; select bank0
  1459  0171  00DD               	movwf	_odo
  1460                           
  1461                           ;source1.c: 166: odo <<= 8;
  1462  0172  3008               	movlw	8
  1463  0173                     u3515:	
  1464  0173  35DD               	lslf	_odo,f
  1465  0174  0DDE               	rlf	_odo+1,f
  1466  0175  0DDF               	rlf	_odo+2,f
  1467  0176  0DE0               	rlf	_odo+3,f
  1468  0177  0B89               	decfsz	9,f
  1469  0178  2973               	goto	u3515
  1470                           
  1471                           ;source1.c: 167: odo = odo | ( EEADR = 0x01, EECON1 &= 0x3F, RD = 1, EEDATA);
  1472  0179  3000               	movlw	0
  1473  017A  0023               	movlb	3	; select bank3
  1474  017B  0092               	movwf	18	;volatile
  1475  017C  3001               	movlw	1
  1476  017D  0091               	movwf	17	;volatile
  1477  017E  303F               	movlw	63
  1478  017F  0021               	movlb	1	; select bank1
  1479  0180  00D2               	movwf	??_main^(0+128)
  1480  0181  0852               	movf	??_main^(0+128),w
  1481  0182  0023               	movlb	3	; select bank3
  1482  0183  0595               	andwf	21,f	;volsfr
  1483  0184  1415               	bsf	21,0	;volsfr
  1484  0185  0020               	movlb	0	; select bank0
  1485  0186  085D               	movf	_odo,w
  1486  0187  0021               	movlb	1	; select bank1
  1487  0188  00D2               	movwf	??_main^(0+128)
  1488  0189  0020               	movlb	0	; select bank0
  1489  018A  085E               	movf	_odo+1,w
  1490  018B  0021               	movlb	1	; select bank1
  1491  018C  00D3               	movwf	(??_main^(0+128)+1)
  1492  018D  0020               	movlb	0	; select bank0
  1493  018E  085F               	movf	_odo+2,w
  1494  018F  0021               	movlb	1	; select bank1
  1495  0190  00D4               	movwf	(??_main^(0+128)+2)
  1496  0191  0020               	movlb	0	; select bank0
  1497  0192  0860               	movf	_odo+3,w
  1498  0193  0021               	movlb	1	; select bank1
  1499  0194  00D5               	movwf	(??_main^(0+128)+3)
  1500  0195  0023               	movlb	3	; select bank3
  1501  0196  0813               	movf	19,w	;volatile
  1502  0197  0021               	movlb	1	; select bank1
  1503  0198  00D6               	movwf	(??_main+4)^(0+128)
  1504  0199  01D7               	clrf	((??_main+4)^(0+128)+1)
  1505  019A  01D8               	clrf	((??_main+4)^(0+128)+2)
  1506  019B  01D9               	clrf	((??_main+4)^(0+128)+3)
  1507  019C  0856               	movf	(??_main+4)^(0+128),w
  1508  019D  04D2               	iorwf	??_main^(0+128),f
  1509  019E  0857               	movf	(??_main+5)^(0+128),w
  1510  019F  04D3               	iorwf	(??_main^(0+128)+1),f
  1511  01A0  0858               	movf	(??_main+6)^(0+128),w
  1512  01A1  04D4               	iorwf	(??_main^(0+128)+2),f
  1513  01A2  0859               	movf	(??_main+7)^(0+128),w
  1514  01A3  04D5               	iorwf	(??_main^(0+128)+3),f
  1515  01A4  0855               	movf	(??_main+3)^(0+128),w
  1516  01A5  0020               	movlb	0	; select bank0
  1517  01A6  00E0               	movwf	_odo+3
  1518  01A7  0021               	movlb	1	; select bank1
  1519  01A8  0854               	movf	(??_main+2)^(0+128),w
  1520  01A9  0020               	movlb	0	; select bank0
  1521  01AA  00DF               	movwf	_odo+2
  1522  01AB  0021               	movlb	1	; select bank1
  1523  01AC  0853               	movf	(??_main+1)^(0+128),w
  1524  01AD  0020               	movlb	0	; select bank0
  1525  01AE  00DE               	movwf	_odo+1
  1526  01AF  0021               	movlb	1	; select bank1
  1527  01B0  0852               	movf	??_main^(0+128),w
  1528  01B1  0020               	movlb	0	; select bank0
  1529  01B2  00DD               	movwf	_odo
  1530                           
  1531                           ;source1.c: 168: odo <<= 8;
  1532  01B3  3008               	movlw	8
  1533  01B4                     u3525:	
  1534  01B4  35DD               	lslf	_odo,f
  1535  01B5  0DDE               	rlf	_odo+1,f
  1536  01B6  0DDF               	rlf	_odo+2,f
  1537  01B7  0DE0               	rlf	_odo+3,f
  1538  01B8  0B89               	decfsz	9,f
  1539  01B9  29B4               	goto	u3525
  1540                           
  1541                           ;source1.c: 169: odo = odo | ( EEADR = 0x00, EECON1 &= 0x3F, RD = 1, EEDATA);
  1542  01BA  0023               	movlb	3	; select bank3
  1543  01BB  0191               	clrf	17	;volatile
  1544  01BC  0192               	clrf	18	;volatile
  1545  01BD  303F               	movlw	63
  1546  01BE  0021               	movlb	1	; select bank1
  1547  01BF  00D2               	movwf	??_main^(0+128)
  1548  01C0  0852               	movf	??_main^(0+128),w
  1549  01C1  0023               	movlb	3	; select bank3
  1550  01C2  0595               	andwf	21,f	;volsfr
  1551  01C3  1415               	bsf	21,0	;volsfr
  1552  01C4  0020               	movlb	0	; select bank0
  1553  01C5  085D               	movf	_odo,w
  1554  01C6  0021               	movlb	1	; select bank1
  1555  01C7  00D2               	movwf	??_main^(0+128)
  1556  01C8  0020               	movlb	0	; select bank0
  1557  01C9  085E               	movf	_odo+1,w
  1558  01CA  0021               	movlb	1	; select bank1
  1559  01CB  00D3               	movwf	(??_main^(0+128)+1)
  1560  01CC  0020               	movlb	0	; select bank0
  1561  01CD  085F               	movf	_odo+2,w
  1562  01CE  0021               	movlb	1	; select bank1
  1563  01CF  00D4               	movwf	(??_main^(0+128)+2)
  1564  01D0  0020               	movlb	0	; select bank0
  1565  01D1  0860               	movf	_odo+3,w
  1566  01D2  0021               	movlb	1	; select bank1
  1567  01D3  00D5               	movwf	(??_main^(0+128)+3)
  1568  01D4  0023               	movlb	3	; select bank3
  1569  01D5  0813               	movf	19,w	;volatile
  1570  01D6  0021               	movlb	1	; select bank1
  1571  01D7  00D6               	movwf	(??_main+4)^(0+128)
  1572  01D8  01D7               	clrf	((??_main+4)^(0+128)+1)
  1573  01D9  01D8               	clrf	((??_main+4)^(0+128)+2)
  1574  01DA  01D9               	clrf	((??_main+4)^(0+128)+3)
  1575  01DB  0856               	movf	(??_main+4)^(0+128),w
  1576  01DC  04D2               	iorwf	??_main^(0+128),f
  1577  01DD  0857               	movf	(??_main+5)^(0+128),w
  1578  01DE  04D3               	iorwf	(??_main^(0+128)+1),f
  1579  01DF  0858               	movf	(??_main+6)^(0+128),w
  1580  01E0  04D4               	iorwf	(??_main^(0+128)+2),f
  1581  01E1  0859               	movf	(??_main+7)^(0+128),w
  1582  01E2  04D5               	iorwf	(??_main^(0+128)+3),f
  1583  01E3  0855               	movf	(??_main+3)^(0+128),w
  1584  01E4  0020               	movlb	0	; select bank0
  1585  01E5  00E0               	movwf	_odo+3
  1586  01E6  0021               	movlb	1	; select bank1
  1587  01E7  0854               	movf	(??_main+2)^(0+128),w
  1588  01E8  0020               	movlb	0	; select bank0
  1589  01E9  00DF               	movwf	_odo+2
  1590  01EA  0021               	movlb	1	; select bank1
  1591  01EB  0853               	movf	(??_main+1)^(0+128),w
  1592  01EC  0020               	movlb	0	; select bank0
  1593  01ED  00DE               	movwf	_odo+1
  1594  01EE  0021               	movlb	1	; select bank1
  1595  01EF  0852               	movf	??_main^(0+128),w
  1596  01F0  0020               	movlb	0	; select bank0
  1597  01F1  00DD               	movwf	_odo
  1598                           
  1599                           ;source1.c: 170: pulse = ( EEADR = 0x04, EECON1 &= 0x3F, RD = 1, EEDATA);
  1600  01F2  3000               	movlw	0
  1601  01F3  0023               	movlb	3	; select bank3
  1602  01F4  0092               	movwf	18	;volatile
  1603  01F5  3004               	movlw	4
  1604  01F6  0091               	movwf	17	;volatile
  1605  01F7  303F               	movlw	63
  1606  01F8  0021               	movlb	1	; select bank1
  1607  01F9  00D2               	movwf	??_main^(0+128)
  1608  01FA  0852               	movf	??_main^(0+128),w
  1609  01FB  0023               	movlb	3	; select bank3
  1610  01FC  0595               	andwf	21,f	;volsfr
  1611  01FD  1415               	bsf	21,0	;volsfr
  1612  01FE  0813               	movf	19,w	;volatile
  1613  01FF  0021               	movlb	1	; select bank1
  1614  0200  00D2               	movwf	??_main^(0+128)
  1615  0201  01D3               	clrf	(??_main^(0+128)+1)
  1616  0202  0852               	movf	??_main^(0+128),w
  1617  0203  0020               	movlb	0	; select bank0
  1618  0204  00E1               	movwf	_pulse
  1619  0205  0021               	movlb	1	; select bank1
  1620  0206  0853               	movf	(??_main+1)^(0+128),w
  1621  0207  0020               	movlb	0	; select bank0
  1622  0208  00E2               	movwf	_pulse+1
  1623                           
  1624                           ;source1.c: 171: pulse <<= 8;
  1625  0209  3008               	movlw	8
  1626  020A                     u3535:	
  1627  020A  35E1               	lslf	_pulse,f
  1628  020B  0DE2               	rlf	_pulse+1,f
  1629  020C  0B89               	decfsz	9,f
  1630  020D  2A0A               	goto	u3535
  1631                           
  1632                           ;source1.c: 172: pulse = pulse | ( EEADR = 0x03, EECON1 &= 0x3F, RD = 1, EEDATA);
  1633  020E  3000               	movlw	0
  1634  020F  0023               	movlb	3	; select bank3
  1635  0210  0092               	movwf	18	;volatile
  1636  0211  3003               	movlw	3
  1637  0212  0091               	movwf	17	;volatile
  1638  0213  303F               	movlw	63
  1639  0214  0021               	movlb	1	; select bank1
  1640  0215  00D2               	movwf	??_main^(0+128)
  1641  0216  0852               	movf	??_main^(0+128),w
  1642  0217  0023               	movlb	3	; select bank3
  1643  0218  0595               	andwf	21,f	;volsfr
  1644  0219  1415               	bsf	21,0	;volsfr
  1645  021A  0020               	movlb	0	; select bank0
  1646  021B  0861               	movf	_pulse,w
  1647  021C  0023               	movlb	3	; select bank3
  1648  021D  0413               	iorwf	19,w	;volatile
  1649  021E  0021               	movlb	1	; select bank1
  1650  021F  00D2               	movwf	??_main^(0+128)
  1651  0220  0020               	movlb	0	; select bank0
  1652  0221  0862               	movf	_pulse+1,w
  1653  0222  0021               	movlb	1	; select bank1
  1654  0223  00D3               	movwf	(??_main+1)^(0+128)
  1655  0224  0852               	movf	??_main^(0+128),w
  1656  0225  0020               	movlb	0	; select bank0
  1657  0226  00E1               	movwf	_pulse
  1658  0227  0021               	movlb	1	; select bank1
  1659  0228  0853               	movf	(??_main+1)^(0+128),w
  1660  0229  0020               	movlb	0	; select bank0
  1661  022A  00E2               	movwf	_pulse+1
  1662                           
  1663                           ;source1.c: 174: if(odo>99999){
  1664  022B  0860               	movf	_odo+3,w
  1665  022C  1D03               	btfss	3,2
  1666  022D  2A36               	goto	l3044
  1667  022E  30A0               	movlw	160
  1668  022F  025D               	subwf	_odo,w
  1669  0230  3086               	movlw	134
  1670  0231  3B5E               	subwfb	_odo+1,w
  1671  0232  3001               	movlw	1
  1672  0233  3B5F               	subwfb	_odo+2,w
  1673  0234  1C03               	btfss	3,0
  1674  0235  2A3E               	goto	l354
  1675  0236                     l3044:	
  1676                           
  1677                           ;source1.c: 175: odo = 0;
  1678  0236  3000               	movlw	0
  1679  0237  00E0               	movwf	_odo+3
  1680  0238  3000               	movlw	0
  1681  0239  00DF               	movwf	_odo+2
  1682  023A  3000               	movlw	0
  1683  023B  00DE               	movwf	_odo+1
  1684  023C  3000               	movlw	0
  1685  023D  00DD               	movwf	_odo
  1686  023E                     l354:	
  1687                           
  1688                           ;source1.c: 176: }
  1689                           ;source1.c: 177: if(pulse>37800){
  1690  023E  3093               	movlw	147
  1691  023F  0262               	subwf	_pulse+1,w
  1692  0240  30A9               	movlw	169
  1693  0241  1903               	skipnz
  1694  0242  0261               	subwf	_pulse,w
  1695  0243  1C03               	skipc
  1696  0244  2A47               	goto	l3048
  1697                           
  1698                           ;source1.c: 178: pulse = 0;
  1699  0245  01E1               	clrf	_pulse
  1700  0246  01E2               	clrf	_pulse+1
  1701  0247                     l3048:	
  1702                           
  1703                           ;source1.c: 179: }
  1704                           ;source1.c: 181: InitI2C_Master(1) ;
  1705  0247  3001               	movlw	1
  1706  0248  0021               	movlb	1	; select bank1
  1707  0249  00A0               	movwf	InitI2C_Master@speed^(0+128)
  1708  024A  3000               	movlw	0
  1709  024B  00A1               	movwf	(InitI2C_Master@speed^(0+128)+1)
  1710  024C  318D  2542  3181   	fcall	_InitI2C_Master
  1711                           
  1712                           ;source1.c: 184: LCD_Init(0,63,0,8) ;
  1713  024F  3000               	movlw	0
  1714  0250  0021               	movlb	1	; select bank1
  1715  0251  00AC               	movwf	LCD_Init@icon^(0+128)
  1716  0252  00AD               	movwf	(LCD_Init@icon+1)^(0+128)
  1717  0253  303F               	movlw	63
  1718  0254  00AE               	movwf	LCD_Init@contrast^(0+128)
  1719  0255  3000               	movlw	0
  1720  0256  00AF               	movwf	(LCD_Init@contrast^(0+128)+1)
  1721  0257  3000               	movlw	0
  1722  0258  00B0               	movwf	LCD_Init@bon^(0+128)
  1723  0259  00B1               	movwf	(LCD_Init@bon+1)^(0+128)
  1724  025A  3008               	movlw	8
  1725  025B  00B2               	movwf	LCD_Init@colsu^(0+128)
  1726  025C  3000               	movlw	0
  1727  025D  00B3               	movwf	(LCD_Init@colsu^(0+128)+1)
  1728  025E  318E  26F7  3181   	fcall	_LCD_Init
  1729                           
  1730                           ;source1.c: 185: LCD_SetCursor(0,0) ;
  1731  0261  3000               	movlw	0
  1732  0262  0021               	movlb	1	; select bank1
  1733  0263  00AB               	movwf	LCD_SetCursor@col^(0+128)
  1734  0264  00AC               	movwf	(LCD_SetCursor@col+1)^(0+128)
  1735  0265  3000               	movlw	0
  1736  0266  00AD               	movwf	LCD_SetCursor@row^(0+128)
  1737  0267  00AE               	movwf	(LCD_SetCursor@row+1)^(0+128)
  1738  0268  318D  2528  3181   	fcall	_LCD_SetCursor
  1739                           
  1740                           ;source1.c: 186: LCD_Puts("STREAM") ;
  1741  026B  3047               	movlw	low (STR_1| (0+32768))
  1742  026C  0021               	movlb	1	; select bank1
  1743  026D  00A8               	movwf	LCD_Puts@s^(0+128)
  1744  026E  3088               	movlw	high (STR_1| (0+32768))
  1745  026F  00A9               	movwf	(LCD_Puts@s^(0+128)+1)
  1746  0270  318D  25DE  3181   	fcall	_LCD_Puts
  1747                           
  1748                           ;source1.c: 187: LCD_SetCursor(1,1) ;
  1749  0273  3001               	movlw	1
  1750  0274  0021               	movlb	1	; select bank1
  1751  0275  00AB               	movwf	LCD_SetCursor@col^(0+128)
  1752  0276  3000               	movlw	0
  1753  0277  00AC               	movwf	(LCD_SetCursor@col^(0+128)+1)
  1754  0278  3001               	movlw	1
  1755  0279  00AD               	movwf	LCD_SetCursor@row^(0+128)
  1756  027A  3000               	movlw	0
  1757  027B  00AE               	movwf	(LCD_SetCursor@row^(0+128)+1)
  1758  027C  318D  2528  3181   	fcall	_LCD_SetCursor
  1759                           
  1760                           ;source1.c: 188: LCD_Puts("EVOLVED") ;
  1761  027F  3037               	movlw	low (STR_2| (0+32768))
  1762  0280  0021               	movlb	1	; select bank1
  1763  0281  00A8               	movwf	LCD_Puts@s^(0+128)
  1764  0282  3088               	movlw	high (STR_2| (0+32768))
  1765  0283  00A9               	movwf	(LCD_Puts@s^(0+128)+1)
  1766  0284  318D  25DE  3181   	fcall	_LCD_Puts
  1767                           
  1768                           ;source1.c: 189: _delay((unsigned long)((1500)*(8000000/4000.0)));
  1769  0287  3010               	movlw	16
  1770  0288  0021               	movlb	1	; select bank1
  1771  0289  00D3               	movwf	(??_main^(0+128)+1)
  1772  028A  3039               	movlw	57
  1773  028B  00D2               	movwf	??_main^(0+128)
  1774  028C  300D               	movlw	13
  1775  028D                     u3897:	
  1776  028D  0B89               	decfsz	9,f
  1777  028E  2A8D               	goto	u3897
  1778  028F  0BD2               	decfsz	??_main^(0+128),f
  1779  0290  2A8D               	goto	u3897
  1780  0291  0BD3               	decfsz	(??_main^(0+128)+1),f
  1781  0292  2A8D               	goto	u3897
  1782  0293  3200               	nop2
  1783                           
  1784                           ;source1.c: 190: LCD_Clear();
  1785  0294  318D  2579  3181   	fcall	_LCD_Clear
  1786  0297                     l3074:	
  1787                           ;source1.c: 192: while(RB7 == 0) {
  1788                           
  1789  0297  0020               	movlb	0	; select bank0
  1790  0298  1B8D               	btfsc	13,7	;volatile
  1791  0299  2AE2               	goto	l358
  1792                           
  1793                           ;source1.c: 193: RB3 = 1;
  1794  029A  158D               	bsf	13,3	;volatile
  1795                           
  1796                           ;source1.c: 194: sprintf(lcd, "%05lu%3u", odo, spdval) ;
  1797  029B  302E               	movlw	low (STR_3| (0+32768))
  1798  029C  0021               	movlb	1	; select bank1
  1799  029D  00B8               	movwf	sprintf@f^(0+128)
  1800  029E  3088               	movlw	high (STR_3| (0+32768))
  1801  029F  00B9               	movwf	(sprintf@f^(0+128)+1)
  1802  02A0  0020               	movlb	0	; select bank0
  1803  02A1  0860               	movf	_odo+3,w
  1804  02A2  0021               	movlb	1	; select bank1
  1805  02A3  00BD               	movwf	((?_sprintf+3)^(0+128)+2)
  1806  02A4  0020               	movlb	0	; select bank0
  1807  02A5  085F               	movf	_odo+2,w
  1808  02A6  0021               	movlb	1	; select bank1
  1809  02A7  00BC               	movwf	((?_sprintf+2)^(0+128)+2)
  1810  02A8  0020               	movlb	0	; select bank0
  1811  02A9  085E               	movf	_odo+1,w
  1812  02AA  0021               	movlb	1	; select bank1
  1813  02AB  00BB               	movwf	((?_sprintf+1)^(0+128)+2)
  1814  02AC  0020               	movlb	0	; select bank0
  1815  02AD  085D               	movf	_odo,w
  1816  02AE  0021               	movlb	1	; select bank1
  1817  02AF  00BA               	movwf	(?_sprintf^(0+128)+2)
  1818  02B0  0020               	movlb	0	; select bank0
  1819  02B1  0856               	movf	_spdval+1,w
  1820  02B2  0021               	movlb	1	; select bank1
  1821  02B3  00BF               	movwf	((?_sprintf+1)^(0+128)+6)
  1822  02B4  0020               	movlb	0	; select bank0
  1823  02B5  0855               	movf	_spdval,w
  1824  02B6  0021               	movlb	1	; select bank1
  1825  02B7  00BE               	movwf	(?_sprintf^(0+128)+6)
  1826  02B8  30DA               	movlw	(low (main@lcd| 0))& (0+255)
  1827  02B9  3184  2473  3181   	fcall	_sprintf
  1828                           
  1829                           ;source1.c: 195: LCD_SetCursor(0,0);
  1830  02BC  3000               	movlw	0
  1831  02BD  0021               	movlb	1	; select bank1
  1832  02BE  00AB               	movwf	LCD_SetCursor@col^(0+128)
  1833  02BF  00AC               	movwf	(LCD_SetCursor@col+1)^(0+128)
  1834  02C0  3000               	movlw	0
  1835  02C1  00AD               	movwf	LCD_SetCursor@row^(0+128)
  1836  02C2  00AE               	movwf	(LCD_SetCursor@row+1)^(0+128)
  1837  02C3  318D  2528  3181   	fcall	_LCD_SetCursor
  1838                           
  1839                           ;source1.c: 196: LCD_Puts("ODO  SPD");
  1840  02C6  3025               	movlw	low (STR_4| (0+32768))
  1841  02C7  0021               	movlb	1	; select bank1
  1842  02C8  00A8               	movwf	LCD_Puts@s^(0+128)
  1843  02C9  3088               	movlw	high (STR_4| (0+32768))
  1844  02CA  00A9               	movwf	(LCD_Puts@s^(0+128)+1)
  1845  02CB  318D  25DE  3181   	fcall	_LCD_Puts
  1846                           
  1847                           ;source1.c: 197: LCD_SetCursor (0,1);
  1848  02CE  3000               	movlw	0
  1849  02CF  0021               	movlb	1	; select bank1
  1850  02D0  00AB               	movwf	LCD_SetCursor@col^(0+128)
  1851  02D1  00AC               	movwf	(LCD_SetCursor@col+1)^(0+128)
  1852  02D2  3001               	movlw	1
  1853  02D3  00AD               	movwf	LCD_SetCursor@row^(0+128)
  1854  02D4  3000               	movlw	0
  1855  02D5  00AE               	movwf	(LCD_SetCursor@row^(0+128)+1)
  1856  02D6  318D  2528  3181   	fcall	_LCD_SetCursor
  1857                           
  1858                           ;source1.c: 198: LCD_Puts(lcd);
  1859  02D9  30DA               	movlw	low main@lcd
  1860  02DA  0021               	movlb	1	; select bank1
  1861  02DB  00A8               	movwf	LCD_Puts@s^(0+128)
  1862  02DC  3000               	movlw	high main@lcd
  1863  02DD  00A9               	movwf	(LCD_Puts@s+1)^(0+128)
  1864  02DE  318D  25DE  3181   	fcall	_LCD_Puts
  1865  02E1  2A97               	goto	l3074
  1866  02E2                     l358:	
  1867                           
  1868                           ;source1.c: 199: }
  1869                           ;source1.c: 201: TMR2IE = 0;
  1870  02E2  0021               	movlb	1	; select bank1
  1871  02E3  1091               	bcf	17,1	;volatile
  1872                           
  1873                           ;source1.c: 202: RB3 = 1;
  1874  02E4  0020               	movlb	0	; select bank0
  1875  02E5  158D               	bsf	13,3	;volatile
  1876                           
  1877                           ;source1.c: 203: LCD_Clear();
  1878  02E6  318D  2579  3181   	fcall	_LCD_Clear
  1879                           
  1880                           ;source1.c: 204: LCD_SetCursor(0,0) ;
  1881  02E9  3000               	movlw	0
  1882  02EA  0021               	movlb	1	; select bank1
  1883  02EB  00AB               	movwf	LCD_SetCursor@col^(0+128)
  1884  02EC  00AC               	movwf	(LCD_SetCursor@col+1)^(0+128)
  1885  02ED  3000               	movlw	0
  1886  02EE  00AD               	movwf	LCD_SetCursor@row^(0+128)
  1887  02EF  00AE               	movwf	(LCD_SetCursor@row+1)^(0+128)
  1888  02F0  318D  2528  3181   	fcall	_LCD_SetCursor
  1889                           
  1890                           ;source1.c: 205: LCD_Puts("MOVABLE") ;
  1891  02F3  303F               	movlw	low (STR_5| (0+32768))
  1892  02F4  0021               	movlb	1	; select bank1
  1893  02F5  00A8               	movwf	LCD_Puts@s^(0+128)
  1894  02F6  3088               	movlw	high (STR_5| (0+32768))
  1895  02F7  00A9               	movwf	(LCD_Puts@s^(0+128)+1)
  1896  02F8  318D  25DE  3181   	fcall	_LCD_Puts
  1897                           
  1898                           ;source1.c: 206: LCD_SetCursor(3,1) ;
  1899  02FB  3003               	movlw	3
  1900  02FC  0021               	movlb	1	; select bank1
  1901  02FD  00AB               	movwf	LCD_SetCursor@col^(0+128)
  1902  02FE  3000               	movlw	0
  1903  02FF  00AC               	movwf	(LCD_SetCursor@col^(0+128)+1)
  1904  0300  3001               	movlw	1
  1905  0301  00AD               	movwf	LCD_SetCursor@row^(0+128)
  1906  0302  3000               	movlw	0
  1907  0303  00AE               	movwf	(LCD_SetCursor@row^(0+128)+1)
  1908  0304  318D  2528  3181   	fcall	_LCD_SetCursor
  1909                           
  1910                           ;source1.c: 207: LCD_Puts("STUFF") ;
  1911  0307  304E               	movlw	low (STR_6| (0+32768))
  1912  0308  0021               	movlb	1	; select bank1
  1913  0309  00A8               	movwf	LCD_Puts@s^(0+128)
  1914  030A  3088               	movlw	high (STR_6| (0+32768))
  1915  030B  00A9               	movwf	(LCD_Puts@s^(0+128)+1)
  1916  030C  318D  25DE  3181   	fcall	_LCD_Puts
  1917                           
  1918                           ;source1.c: 208: unsigned char od1, od2, od3, pl1, pl2;
  1919                           ;source1.c: 209: unsigned int sw;
  1920                           ;source1.c: 210: od1 = odo & 0xFF;
  1921  030F  0020               	movlb	0	; select bank0
  1922  0310  085D               	movf	_odo,w
  1923  0311  0021               	movlb	1	; select bank1
  1924  0312  00D2               	movwf	??_main^(0+128)
  1925  0313  0852               	movf	??_main^(0+128),w
  1926  0314  00E2               	movwf	main@od1^(0+128)
  1927                           
  1928                           ;source1.c: 211: sw = odo >> 8;
  1929  0315  0020               	movlb	0	; select bank0
  1930  0316  085D               	movf	_odo,w
  1931  0317  0021               	movlb	1	; select bank1
  1932  0318  00D2               	movwf	??_main^(0+128)
  1933  0319  0020               	movlb	0	; select bank0
  1934  031A  085E               	movf	_odo+1,w
  1935  031B  0021               	movlb	1	; select bank1
  1936  031C  00D3               	movwf	(??_main^(0+128)+1)
  1937  031D  0020               	movlb	0	; select bank0
  1938  031E  085F               	movf	_odo+2,w
  1939  031F  0021               	movlb	1	; select bank1
  1940  0320  00D4               	movwf	(??_main^(0+128)+2)
  1941  0321  0020               	movlb	0	; select bank0
  1942  0322  0860               	movf	_odo+3,w
  1943  0323  0021               	movlb	1	; select bank1
  1944  0324  00D5               	movwf	(??_main^(0+128)+3)
  1945  0325  3008               	movlw	8
  1946  0326                     u3575:	
  1947  0326  36D5               	lsrf	(??_main^(0+128)+3),f
  1948  0327  0CD4               	rrf	(??_main^(0+128)+2),f
  1949  0328  0CD3               	rrf	(??_main^(0+128)+1),f
  1950  0329  0CD2               	rrf	??_main^(0+128),f
  1951  032A  0B89               	decfsz	9,f
  1952  032B  2B26               	goto	u3575
  1953  032C  0853               	movf	(??_main+1)^(0+128),w
  1954  032D  00E8               	movwf	(main@sw+1)^(0+128)
  1955  032E  0852               	movf	??_main^(0+128),w
  1956  032F  00E7               	movwf	main@sw^(0+128)
  1957                           
  1958                           ;source1.c: 212: od2 = sw & 0xFF;
  1959  0330  0867               	movf	main@sw^(0+128),w
  1960  0331  00D2               	movwf	??_main^(0+128)
  1961  0332  0852               	movf	??_main^(0+128),w
  1962  0333  00E3               	movwf	main@od2^(0+128)
  1963                           
  1964                           ;source1.c: 213: sw = odo >> 16;
  1965  0334  0020               	movlb	0	; select bank0
  1966  0335  085D               	movf	_odo,w
  1967  0336  0021               	movlb	1	; select bank1
  1968  0337  00D2               	movwf	??_main^(0+128)
  1969  0338  0020               	movlb	0	; select bank0
  1970  0339  085E               	movf	_odo+1,w
  1971  033A  0021               	movlb	1	; select bank1
  1972  033B  00D3               	movwf	(??_main^(0+128)+1)
  1973  033C  0020               	movlb	0	; select bank0
  1974  033D  085F               	movf	_odo+2,w
  1975  033E  0021               	movlb	1	; select bank1
  1976  033F  00D4               	movwf	(??_main^(0+128)+2)
  1977  0340  0020               	movlb	0	; select bank0
  1978  0341  0860               	movf	_odo+3,w
  1979  0342  0021               	movlb	1	; select bank1
  1980  0343  00D5               	movwf	(??_main^(0+128)+3)
  1981  0344  3010               	movlw	16
  1982  0345                     u3585:	
  1983  0345  36D5               	lsrf	(??_main^(0+128)+3),f
  1984  0346  0CD4               	rrf	(??_main^(0+128)+2),f
  1985  0347  0CD3               	rrf	(??_main^(0+128)+1),f
  1986  0348  0CD2               	rrf	??_main^(0+128),f
  1987  0349  0B89               	decfsz	9,f
  1988  034A  2B45               	goto	u3585
  1989  034B  0853               	movf	(??_main+1)^(0+128),w
  1990  034C  00E8               	movwf	(main@sw+1)^(0+128)
  1991  034D  0852               	movf	??_main^(0+128),w
  1992  034E  00E7               	movwf	main@sw^(0+128)
  1993                           
  1994                           ;source1.c: 214: od3 = sw & 0xFF;
  1995  034F  0867               	movf	main@sw^(0+128),w
  1996  0350  00D2               	movwf	??_main^(0+128)
  1997  0351  0852               	movf	??_main^(0+128),w
  1998  0352  00E4               	movwf	main@od3^(0+128)
  1999                           
  2000                           ;source1.c: 215: pl1 = pulse & 0xFF;
  2001  0353  0020               	movlb	0	; select bank0
  2002  0354  0861               	movf	_pulse,w
  2003  0355  0021               	movlb	1	; select bank1
  2004  0356  00D2               	movwf	??_main^(0+128)
  2005  0357  0852               	movf	??_main^(0+128),w
  2006  0358  00E5               	movwf	main@pl1^(0+128)
  2007                           
  2008                           ;source1.c: 216: sw = pulse >> 8;
  2009  0359  0020               	movlb	0	; select bank0
  2010  035A  0862               	movf	_pulse+1,w
  2011  035B  0021               	movlb	1	; select bank1
  2012  035C  00D3               	movwf	(??_main^(0+128)+1)
  2013  035D  0020               	movlb	0	; select bank0
  2014  035E  0861               	movf	_pulse,w
  2015  035F  0021               	movlb	1	; select bank1
  2016  0360  00D2               	movwf	??_main^(0+128)
  2017  0361  0853               	movf	(??_main^(0+128)+1),w
  2018  0362  00D2               	movwf	??_main^(0+128)
  2019  0363  01D3               	clrf	(??_main^(0+128)+1)
  2020  0364  0852               	movf	??_main^(0+128),w
  2021  0365  00E7               	movwf	main@sw^(0+128)
  2022  0366  0853               	movf	(??_main+1)^(0+128),w
  2023  0367  00E8               	movwf	(main@sw+1)^(0+128)
  2024                           
  2025                           ;source1.c: 217: pl2 = sw & 0xFF;
  2026  0368  0867               	movf	main@sw^(0+128),w
  2027  0369  00D2               	movwf	??_main^(0+128)
  2028  036A  0852               	movf	??_main^(0+128),w
  2029  036B  00E6               	movwf	main@pl2^(0+128)
  2030                           
  2031                           ;source1.c: 218: if(( EEADR = 0x00, EECON1 &= 0x3F, RD = 1, EEDATA) != od1){
  2032  036C  0023               	movlb	3	; select bank3
  2033  036D  0191               	clrf	17	;volatile
  2034  036E  0192               	clrf	18	;volatile
  2035  036F  303F               	movlw	63
  2036  0370  0021               	movlb	1	; select bank1
  2037  0371  00D2               	movwf	??_main^(0+128)
  2038  0372  0852               	movf	??_main^(0+128),w
  2039  0373  0023               	movlb	3	; select bank3
  2040  0374  0595               	andwf	21,f	;volsfr
  2041  0375  1415               	bsf	21,0	;volsfr
  2042  0376  0813               	movf	19,w	;volatile
  2043  0377  0021               	movlb	1	; select bank1
  2044  0378  0662               	xorwf	main@od1^(0+128),w
  2045  0379  1903               	skipnz
  2046  037A  2B9A               	goto	l359
  2047  037B                     l361:	
  2048                           ;source1.c: 219: do{ while (WR) { continue; } EEADR = (0x00); EEDATA = (od1); EECON1 &= 
      +                          0x3F; CARRY = 0; if (GIE) { CARRY = 1; } GIE = 0; WREN = 1; EECON2 = 0x55; EECON2 = 0xAA
      +                          ; WR = 1; WREN = 0; if (CARRY) { GIE = 1; } } while (0);
  2049                           
  2050  037B  0023               	movlb	3	; select bank3
  2051  037C  1895               	btfsc	21,1	;volsfr
  2052  037D  2B7B               	goto	l361
  2053  037E  0191               	clrf	17	;volatile
  2054  037F  0192               	clrf	18	;volatile
  2055  0380  0021               	movlb	1	; select bank1
  2056  0381  0862               	movf	main@od1^(0+128),w
  2057  0382  0023               	movlb	3	; select bank3
  2058  0383  0093               	movwf	19	;volatile
  2059  0384  303F               	movlw	63
  2060  0385  0021               	movlb	1	; select bank1
  2061  0386  00D2               	movwf	??_main^(0+128)
  2062  0387  0852               	movf	??_main^(0+128),w
  2063  0388  0023               	movlb	3	; select bank3
  2064  0389  0595               	andwf	21,f	;volsfr
  2065  038A  0020               	movlb	0	; select bank0
  2066  038B  1003               	bcf	3,0	;volatile
  2067  038C  1B8B               	btfsc	11,7	;volatile
  2068  038D  1403               	bsf	3,0	;volatile
  2069  038E  138B               	bcf	11,7	;volatile
  2070  038F  0023               	movlb	3	; select bank3
  2071  0390  1515               	bsf	21,2	;volsfr
  2072  0391  3055               	movlw	85
  2073  0392  0096               	movwf	22	;volsfr
  2074  0393  30AA               	movlw	170
  2075  0394  0096               	movwf	22	;volsfr
  2076  0395  1495               	bsf	21,1	;volsfr
  2077  0396  1115               	bcf	21,2	;volsfr
  2078  0397  0020               	movlb	0	; select bank0
  2079  0398  1803               	btfsc	3,0	;volatile
  2080  0399  178B               	bsf	11,7	;volatile
  2081  039A                     l359:	
  2082                           
  2083                           ;source1.c: 220: }
  2084                           ;source1.c: 221: if(( EEADR = 0x01, EECON1 &= 0x3F, RD = 1, EEDATA) != od2){
  2085  039A  3000               	movlw	0
  2086  039B  0023               	movlb	3	; select bank3
  2087  039C  0092               	movwf	18	;volatile
  2088  039D  3001               	movlw	1
  2089  039E  0091               	movwf	17	;volatile
  2090  039F  303F               	movlw	63
  2091  03A0  0021               	movlb	1	; select bank1
  2092  03A1  00D2               	movwf	??_main^(0+128)
  2093  03A2  0852               	movf	??_main^(0+128),w
  2094  03A3  0023               	movlb	3	; select bank3
  2095  03A4  0595               	andwf	21,f	;volsfr
  2096  03A5  1415               	bsf	21,0	;volsfr
  2097  03A6  0813               	movf	19,w	;volatile
  2098  03A7  0021               	movlb	1	; select bank1
  2099  03A8  0663               	xorwf	main@od2^(0+128),w
  2100  03A9  1903               	skipnz
  2101  03AA  2BCC               	goto	l367
  2102  03AB                     l369:	
  2103                           ;source1.c: 222: do{ while (WR) { continue; } EEADR = (0x01); EEDATA = (od2); EECON1 &= 
      +                          0x3F; CARRY = 0; if (GIE) { CARRY = 1; } GIE = 0; WREN = 1; EECON2 = 0x55; EECON2 = 0xAA
      +                          ; WR = 1; WREN = 0; if (CARRY) { GIE = 1; } } while (0);
  2104                           
  2105  03AB  0023               	movlb	3	; select bank3
  2106  03AC  1895               	btfsc	21,1	;volsfr
  2107  03AD  2BAB               	goto	l369
  2108  03AE  3000               	movlw	0
  2109  03AF  0092               	movwf	18	;volatile
  2110  03B0  3001               	movlw	1
  2111  03B1  0091               	movwf	17	;volatile
  2112  03B2  0021               	movlb	1	; select bank1
  2113  03B3  0863               	movf	main@od2^(0+128),w
  2114  03B4  0023               	movlb	3	; select bank3
  2115  03B5  0093               	movwf	19	;volatile
  2116  03B6  303F               	movlw	63
  2117  03B7  0021               	movlb	1	; select bank1
  2118  03B8  00D2               	movwf	??_main^(0+128)
  2119  03B9  0852               	movf	??_main^(0+128),w
  2120  03BA  0023               	movlb	3	; select bank3
  2121  03BB  0595               	andwf	21,f	;volsfr
  2122  03BC  0020               	movlb	0	; select bank0
  2123  03BD  1003               	bcf	3,0	;volatile
  2124  03BE  1B8B               	btfsc	11,7	;volatile
  2125  03BF  1403               	bsf	3,0	;volatile
  2126  03C0  138B               	bcf	11,7	;volatile
  2127  03C1  0023               	movlb	3	; select bank3
  2128  03C2  1515               	bsf	21,2	;volsfr
  2129  03C3  3055               	movlw	85
  2130  03C4  0096               	movwf	22	;volsfr
  2131  03C5  30AA               	movlw	170
  2132  03C6  0096               	movwf	22	;volsfr
  2133  03C7  1495               	bsf	21,1	;volsfr
  2134  03C8  1115               	bcf	21,2	;volsfr
  2135  03C9  0020               	movlb	0	; select bank0
  2136  03CA  1803               	btfsc	3,0	;volatile
  2137  03CB  178B               	bsf	11,7	;volatile
  2138  03CC                     l367:	
  2139                           
  2140                           ;source1.c: 223: }
  2141                           ;source1.c: 224: if(( EEADR = 0x02, EECON1 &= 0x3F, RD = 1, EEDATA) != od3){
  2142  03CC  3000               	movlw	0
  2143  03CD  0023               	movlb	3	; select bank3
  2144  03CE  0092               	movwf	18	;volatile
  2145  03CF  3002               	movlw	2
  2146  03D0  0091               	movwf	17	;volatile
  2147  03D1  303F               	movlw	63
  2148  03D2  0021               	movlb	1	; select bank1
  2149  03D3  00D2               	movwf	??_main^(0+128)
  2150  03D4  0852               	movf	??_main^(0+128),w
  2151  03D5  0023               	movlb	3	; select bank3
  2152  03D6  0595               	andwf	21,f	;volsfr
  2153  03D7  1415               	bsf	21,0	;volsfr
  2154  03D8  0813               	movf	19,w	;volatile
  2155  03D9  0021               	movlb	1	; select bank1
  2156  03DA  0664               	xorwf	main@od3^(0+128),w
  2157  03DB  1903               	skipnz
  2158  03DC  2BFE               	goto	l375
  2159  03DD                     l377:	
  2160                           ;source1.c: 225: do{ while (WR) { continue; } EEADR = (0x02); EEDATA = (od3); EECON1 &= 
      +                          0x3F; CARRY = 0; if (GIE) { CARRY = 1; } GIE = 0; WREN = 1; EECON2 = 0x55; EECON2 = 0xAA
      +                          ; WR = 1; WREN = 0; if (CARRY) { GIE = 1; } } while (0);
  2161                           
  2162  03DD  0023               	movlb	3	; select bank3
  2163  03DE  1895               	btfsc	21,1	;volsfr
  2164  03DF  2BDD               	goto	l377
  2165  03E0  3000               	movlw	0
  2166  03E1  0092               	movwf	18	;volatile
  2167  03E2  3002               	movlw	2
  2168  03E3  0091               	movwf	17	;volatile
  2169  03E4  0021               	movlb	1	; select bank1
  2170  03E5  0864               	movf	main@od3^(0+128),w
  2171  03E6  0023               	movlb	3	; select bank3
  2172  03E7  0093               	movwf	19	;volatile
  2173  03E8  303F               	movlw	63
  2174  03E9  0021               	movlb	1	; select bank1
  2175  03EA  00D2               	movwf	??_main^(0+128)
  2176  03EB  0852               	movf	??_main^(0+128),w
  2177  03EC  0023               	movlb	3	; select bank3
  2178  03ED  0595               	andwf	21,f	;volsfr
  2179  03EE  0020               	movlb	0	; select bank0
  2180  03EF  1003               	bcf	3,0	;volatile
  2181  03F0  1B8B               	btfsc	11,7	;volatile
  2182  03F1  1403               	bsf	3,0	;volatile
  2183  03F2  138B               	bcf	11,7	;volatile
  2184  03F3  0023               	movlb	3	; select bank3
  2185  03F4  1515               	bsf	21,2	;volsfr
  2186  03F5  3055               	movlw	85
  2187  03F6  0096               	movwf	22	;volsfr
  2188  03F7  30AA               	movlw	170
  2189  03F8  0096               	movwf	22	;volsfr
  2190  03F9  1495               	bsf	21,1	;volsfr
  2191  03FA  1115               	bcf	21,2	;volsfr
  2192  03FB  0020               	movlb	0	; select bank0
  2193  03FC  1803               	btfsc	3,0	;volatile
  2194  03FD  178B               	bsf	11,7	;volatile
  2195  03FE                     l375:	
  2196                           
  2197                           ;source1.c: 226: }
  2198                           ;source1.c: 227: if(( EEADR = 0x03, EECON1 &= 0x3F, RD = 1, EEDATA) != pl1){
  2199  03FE  3000               	movlw	0
  2200  03FF  0023               	movlb	3	; select bank3
  2201  0400  0092               	movwf	18	;volatile
  2202  0401  3003               	movlw	3
  2203  0402  0091               	movwf	17	;volatile
  2204  0403  303F               	movlw	63
  2205  0404  0021               	movlb	1	; select bank1
  2206  0405  00D2               	movwf	??_main^(0+128)
  2207  0406  0852               	movf	??_main^(0+128),w
  2208  0407  0023               	movlb	3	; select bank3
  2209  0408  0595               	andwf	21,f	;volsfr
  2210  0409  1415               	bsf	21,0	;volsfr
  2211  040A  0813               	movf	19,w	;volatile
  2212  040B  0021               	movlb	1	; select bank1
  2213  040C  0665               	xorwf	main@pl1^(0+128),w
  2214  040D  1903               	skipnz
  2215  040E  2C30               	goto	l383
  2216  040F                     l385:	
  2217                           ;source1.c: 228: do{ while (WR) { continue; } EEADR = (0x03); EEDATA = (pl1); EECON1 &= 
      +                          0x3F; CARRY = 0; if (GIE) { CARRY = 1; } GIE = 0; WREN = 1; EECON2 = 0x55; EECON2 = 0xAA
      +                          ; WR = 1; WREN = 0; if (CARRY) { GIE = 1; } } while (0);
  2218                           
  2219  040F  0023               	movlb	3	; select bank3
  2220  0410  1895               	btfsc	21,1	;volsfr
  2221  0411  2C0F               	goto	l385
  2222  0412  3000               	movlw	0
  2223  0413  0092               	movwf	18	;volatile
  2224  0414  3003               	movlw	3
  2225  0415  0091               	movwf	17	;volatile
  2226  0416  0021               	movlb	1	; select bank1
  2227  0417  0865               	movf	main@pl1^(0+128),w
  2228  0418  0023               	movlb	3	; select bank3
  2229  0419  0093               	movwf	19	;volatile
  2230  041A  303F               	movlw	63
  2231  041B  0021               	movlb	1	; select bank1
  2232  041C  00D2               	movwf	??_main^(0+128)
  2233  041D  0852               	movf	??_main^(0+128),w
  2234  041E  0023               	movlb	3	; select bank3
  2235  041F  0595               	andwf	21,f	;volsfr
  2236  0420  0020               	movlb	0	; select bank0
  2237  0421  1003               	bcf	3,0	;volatile
  2238  0422  1B8B               	btfsc	11,7	;volatile
  2239  0423  1403               	bsf	3,0	;volatile
  2240  0424  138B               	bcf	11,7	;volatile
  2241  0425  0023               	movlb	3	; select bank3
  2242  0426  1515               	bsf	21,2	;volsfr
  2243  0427  3055               	movlw	85
  2244  0428  0096               	movwf	22	;volsfr
  2245  0429  30AA               	movlw	170
  2246  042A  0096               	movwf	22	;volsfr
  2247  042B  1495               	bsf	21,1	;volsfr
  2248  042C  1115               	bcf	21,2	;volsfr
  2249  042D  0020               	movlb	0	; select bank0
  2250  042E  1803               	btfsc	3,0	;volatile
  2251  042F  178B               	bsf	11,7	;volatile
  2252  0430                     l383:	
  2253                           
  2254                           ;source1.c: 229: }
  2255                           ;source1.c: 230: if(( EEADR = 0x04, EECON1 &= 0x3F, RD = 1, EEDATA) != pl2){
  2256  0430  3000               	movlw	0
  2257  0431  0023               	movlb	3	; select bank3
  2258  0432  0092               	movwf	18	;volatile
  2259  0433  3004               	movlw	4
  2260  0434  0091               	movwf	17	;volatile
  2261  0435  303F               	movlw	63
  2262  0436  0021               	movlb	1	; select bank1
  2263  0437  00D2               	movwf	??_main^(0+128)
  2264  0438  0852               	movf	??_main^(0+128),w
  2265  0439  0023               	movlb	3	; select bank3
  2266  043A  0595               	andwf	21,f	;volsfr
  2267  043B  1415               	bsf	21,0	;volsfr
  2268  043C  0813               	movf	19,w	;volatile
  2269  043D  0021               	movlb	1	; select bank1
  2270  043E  0666               	xorwf	main@pl2^(0+128),w
  2271  043F  1903               	skipnz
  2272  0440  2C62               	goto	l3236
  2273  0441                     l393:	
  2274                           ;source1.c: 231: do{ while (WR) { continue; } EEADR = (0x04); EEDATA = (pl2); EECON1 &= 
      +                          0x3F; CARRY = 0; if (GIE) { CARRY = 1; } GIE = 0; WREN = 1; EECON2 = 0x55; EECON2 = 0xAA
      +                          ; WR = 1; WREN = 0; if (CARRY) { GIE = 1; } } while (0);
  2275                           
  2276  0441  0023               	movlb	3	; select bank3
  2277  0442  1895               	btfsc	21,1	;volsfr
  2278  0443  2C41               	goto	l393
  2279  0444  3000               	movlw	0
  2280  0445  0092               	movwf	18	;volatile
  2281  0446  3004               	movlw	4
  2282  0447  0091               	movwf	17	;volatile
  2283  0448  0021               	movlb	1	; select bank1
  2284  0449  0866               	movf	main@pl2^(0+128),w
  2285  044A  0023               	movlb	3	; select bank3
  2286  044B  0093               	movwf	19	;volatile
  2287  044C  303F               	movlw	63
  2288  044D  0021               	movlb	1	; select bank1
  2289  044E  00D2               	movwf	??_main^(0+128)
  2290  044F  0852               	movf	??_main^(0+128),w
  2291  0450  0023               	movlb	3	; select bank3
  2292  0451  0595               	andwf	21,f	;volsfr
  2293  0452  0020               	movlb	0	; select bank0
  2294  0453  1003               	bcf	3,0	;volatile
  2295  0454  1B8B               	btfsc	11,7	;volatile
  2296  0455  1403               	bsf	3,0	;volatile
  2297  0456  138B               	bcf	11,7	;volatile
  2298  0457  0023               	movlb	3	; select bank3
  2299  0458  1515               	bsf	21,2	;volsfr
  2300  0459  3055               	movlw	85
  2301  045A  0096               	movwf	22	;volsfr
  2302  045B  30AA               	movlw	170
  2303  045C  0096               	movwf	22	;volsfr
  2304  045D  1495               	bsf	21,1	;volsfr
  2305  045E  1115               	bcf	21,2	;volsfr
  2306  045F  0020               	movlb	0	; select bank0
  2307  0460  1803               	btfsc	3,0	;volatile
  2308  0461  178B               	bsf	11,7	;volatile
  2309  0462                     l3236:	
  2310                           
  2311                           ;source1.c: 232: }
  2312                           ;source1.c: 234: _delay((unsigned long)((1000)*(8000000/4000.0)));
  2313  0462  300B               	movlw	11
  2314  0463  0021               	movlb	1	; select bank1
  2315  0464  00D3               	movwf	(??_main^(0+128)+1)
  2316  0465  3026               	movlw	38
  2317  0466  00D2               	movwf	??_main^(0+128)
  2318  0467  305D               	movlw	93
  2319  0468                     u3907:	
  2320  0468  0B89               	decfsz	9,f
  2321  0469  2C68               	goto	u3907
  2322  046A  0BD2               	decfsz	??_main^(0+128),f
  2323  046B  2C68               	goto	u3907
  2324  046C  0BD3               	decfsz	(??_main^(0+128)+1),f
  2325  046D  2C68               	goto	u3907
  2326  046E  3200               	nop2
  2327                           
  2328                           ;source1.c: 235: RB3 = 0;
  2329  046F  0020               	movlb	0	; select bank0
  2330  0470  118D               	bcf	13,3	;volatile
  2331  0471  3180  28EC         	ljmp	start
  2332  0473                     __end_of_main:	
  2333                           
  2334                           	psect	text1
  2335  0473                     __ptext1:	
  2336 ;; *************** function _sprintf *****************
  2337 ;; Defined at:
  2338 ;;		line 492 in file "C:\Program Files (x86)\Microchip\xc8\v1.45\sources\common\doprnt.c"
  2339 ;; Parameters:    Size  Location     Type
  2340 ;;  sp              1    wreg     PTR unsigned char 
  2341 ;;		 -> main@lcd(8), 
  2342 ;;  f               2   24[BANK1 ] PTR const unsigned char 
  2343 ;;		 -> STR_3(9), 
  2344 ;; Auto vars:     Size  Location     Type
  2345 ;;  sp              1   46[BANK1 ] PTR unsigned char 
  2346 ;;		 -> main@lcd(8), 
  2347 ;;  val             4   40[BANK1 ] unsigned long 
  2348 ;;  tmpval          4    0        struct .
  2349 ;;  width           2   47[BANK1 ] int 
  2350 ;;  prec            2   38[BANK1 ] int 
  2351 ;;  cp              2    0        PTR const unsigned char 
  2352 ;;  len             2    0        unsigned int 
  2353 ;;  c               1   49[BANK1 ] char 
  2354 ;;  flag            1   45[BANK1 ] unsigned char 
  2355 ;;  ap              1   44[BANK1 ] PTR void [1]
  2356 ;;		 -> ?_sprintf(2), 
  2357 ;; Return value:  Size  Location     Type
  2358 ;;                  2   24[BANK1 ] int 
  2359 ;; Registers used:
  2360 ;;		wreg, fsr0l, fsr0h, fsr1l, fsr1h, status,2, status,0, pclath, cstack
  2361 ;; Tracked objects:
  2362 ;;		On entry : 0/0
  2363 ;;		On exit  : 0/0
  2364 ;;		Unchanged: 0/0
  2365 ;; Data sizes:     COMMON   BANK0   BANK1   BANK2   BANK3   BANK4
  2366 ;;      Params:         0       0       8       0       0       0
  2367 ;;      Locals:         0       0      12       0       0       0
  2368 ;;      Temps:          0       0       6       0       0       0
  2369 ;;      Totals:         0       0      26       0       0       0
  2370 ;;Total ram usage:       26 bytes
  2371 ;; Hardware stack levels used:    1
  2372 ;; Hardware stack levels required when called:    4
  2373 ;; This function calls:
  2374 ;;		___lldiv
  2375 ;;		___llmod
  2376 ;;		___wmul
  2377 ;;		_isdigit
  2378 ;; This function is called by:
  2379 ;;		_main
  2380 ;; This function uses a non-reentrant model
  2381 ;;
  2382                           
  2383                           
  2384                           ;psect for function _sprintf
  2385  0473                     _sprintf:	
  2386                           
  2387                           ;incstack = 0
  2388                           ; Regs used in _sprintf: [wreg-fsr1h+status,2+status,0+pclath+cstack]
  2389                           ;sprintf@sp stored from wreg
  2390  0473  0021               	movlb	1	; select bank1
  2391  0474  00CE               	movwf	sprintf@sp^(0+128)
  2392                           
  2393                           ;doprnt.c: 494: va_list ap;
  2394                           ;doprnt.c: 499: signed char c;
  2395                           ;doprnt.c: 501: int width;
  2396                           ;doprnt.c: 504: int prec;
  2397                           ;doprnt.c: 508: unsigned char flag;
  2398                           ;doprnt.c: 523: union {
  2399                           ;doprnt.c: 524: unsigned long vd;
  2400                           ;doprnt.c: 525: double integ;
  2401                           ;doprnt.c: 526: } tmpval;
  2402                           ;doprnt.c: 528: unsigned long val;
  2403                           ;doprnt.c: 529: unsigned len;
  2404                           ;doprnt.c: 530: const char * cp;
  2405                           ;doprnt.c: 533: *ap = __va_start();
  2406  0475  30BA               	movlw	(low ((?_sprintf| 0+2)))& (0+255)
  2407  0476  00C0               	movwf	??_sprintf^(0+128)
  2408  0477  0840               	movf	??_sprintf^(0+128),w
  2409  0478  00CC               	movwf	sprintf@ap^(0+128)
  2410  0479                     l2514:	
  2411                           ;doprnt.c: 536: while(c = *f++) {
  2412                           
  2413  0479  0839               	movf	(sprintf@f+1)^(0+128),w
  2414  047A  00C1               	movwf	(??_sprintf^(0+128)+1)
  2415  047B  0838               	movf	sprintf@f^(0+128),w
  2416  047C  00C0               	movwf	??_sprintf^(0+128)
  2417  047D  0AB8               	incf	sprintf@f^(0+128),f
  2418  047E  1903               	skipnz
  2419  047F  0AB9               	incf	(sprintf@f+1)^(0+128),f
  2420  0480  0840               	movf	??_sprintf^(0+128),w
  2421  0481  0084               	movwf	4
  2422  0482  0841               	movf	(??_sprintf+1)^(0+128),w
  2423  0483  0085               	movwf	5
  2424  0484  0800               	movf	0,w	;code access
  2425  0485  00C2               	movwf	(??_sprintf+2)^(0+128)
  2426  0486  0842               	movf	(??_sprintf+2)^(0+128),w
  2427  0487  00D1               	movwf	sprintf@c^(0+128)
  2428  0488  0851               	movf	sprintf@c^(0+128),w
  2429  0489  1903               	btfsc	3,2
  2430  048A  2DFA               	goto	l2516
  2431                           
  2432                           ;doprnt.c: 538: if(c != '%')
  2433  048B  3025               	movlw	37
  2434  048C  0651               	xorwf	sprintf@c^(0+128),w
  2435  048D  1903               	btfsc	3,2
  2436  048E  2C9B               	goto	l2434
  2437                           
  2438                           ;doprnt.c: 540: {
  2439                           ;doprnt.c: 541: ((*sp++ = (c)));
  2440  048F  0851               	movf	sprintf@c^(0+128),w
  2441  0490  00C0               	movwf	??_sprintf^(0+128)
  2442  0491  084E               	movf	sprintf@sp^(0+128),w
  2443  0492  0086               	movwf	6
  2444  0493  0187               	clrf	7
  2445  0494  0840               	movf	??_sprintf^(0+128),w
  2446  0495  0081               	movwf	1
  2447  0496  3001               	movlw	1
  2448  0497  00C0               	movwf	??_sprintf^(0+128)
  2449  0498  0840               	movf	??_sprintf^(0+128),w
  2450  0499  07CE               	addwf	sprintf@sp^(0+128),f
  2451                           
  2452                           ;doprnt.c: 542: continue;
  2453  049A  2C79               	goto	l2514
  2454  049B                     l2434:	
  2455                           
  2456                           ;doprnt.c: 543: }
  2457                           ;doprnt.c: 546: width = 0;
  2458  049B  01CF               	clrf	sprintf@width^(0+128)
  2459  049C  01D0               	clrf	(sprintf@width+1)^(0+128)
  2460                           
  2461                           ;doprnt.c: 548: flag = 0;
  2462  049D  01CD               	clrf	sprintf@flag^(0+128)
  2463                           
  2464                           ;doprnt.c: 551: switch(*f) {
  2465                           
  2466                           ;doprnt.c: 550: for(;;) {
  2467  049E  2CA4               	goto	l2440
  2468  049F                     l415:	
  2469                           ;doprnt.c: 579: case '0':
  2470                           
  2471                           
  2472                           ;doprnt.c: 580: flag |= 0x04;
  2473  049F  154D               	bsf	sprintf@flag^(0+128),2
  2474                           
  2475                           ;doprnt.c: 581: f++;
  2476  04A0  3001               	movlw	1
  2477  04A1  07B8               	addwf	sprintf@f^(0+128),f
  2478  04A2  3000               	movlw	0
  2479  04A3  3DB9               	addwfc	(sprintf@f+1)^(0+128),f
  2480  04A4                     l2440:	
  2481                           ;doprnt.c: 584: }
  2482                           
  2483                           ;doprnt.c: 582: continue;
  2484                           
  2485  04A4  0838               	movf	sprintf@f^(0+128),w
  2486  04A5  0084               	movwf	4
  2487  04A6  0839               	movf	(sprintf@f+1)^(0+128),w
  2488  04A7  0085               	movwf	5
  2489  04A8  0800               	movf	0,w	;code access
  2490                           
  2491                           ; Switch size 1, requested type "space"
  2492                           ; Number of cases is 1, Range of values is 48 to 48
  2493                           ; switch strategies available:
  2494                           ; Name         Instructions Cycles
  2495                           ; simple_byte            4     3 (average)
  2496                           ; direct_byte           11     9 (fixed)
  2497                           ; jumptable            263     9 (fixed)
  2498                           ;	Chosen strategy is simple_byte
  2499  04A9  3A30               	xorlw	48	; case 48
  2500  04AA  1903               	skipnz
  2501  04AB  2C9F               	goto	l415
  2502  04AC  2CAD               	goto	l2442
  2503  04AD                     l2442:	
  2504                           ;doprnt.c: 586: }
  2505                           
  2506                           ;doprnt.c: 585: break;
  2507                           
  2508                           
  2509                           ;doprnt.c: 597: if(isdigit((unsigned)*f)) {
  2510  04AD  0838               	movf	sprintf@f^(0+128),w
  2511  04AE  0084               	movwf	4
  2512  04AF  0839               	movf	(sprintf@f+1)^(0+128),w
  2513  04B0  0085               	movwf	5
  2514  04B1  0800               	movf	0,w	;code access
  2515  04B2  318C  24DF  3184   	fcall	_isdigit
  2516  04B5  1C03               	btfss	3,0
  2517  04B6  2CF0               	goto	l2458
  2518                           
  2519                           ;doprnt.c: 598: width = 0;
  2520  04B7  0021               	movlb	1	; select bank1
  2521  04B8  01CF               	clrf	sprintf@width^(0+128)
  2522  04B9  01D0               	clrf	(sprintf@width+1)^(0+128)
  2523  04BA                     l2446:	
  2524                           ;doprnt.c: 599: do {
  2525                           
  2526                           
  2527                           ;doprnt.c: 600: width *= 10;
  2528  04BA  300A               	movlw	10
  2529  04BB  0021               	movlb	1	; select bank1
  2530  04BC  00A0               	movwf	___wmul@multiplier^(0+128)
  2531  04BD  3000               	movlw	0
  2532  04BE  00A1               	movwf	(___wmul@multiplier^(0+128)+1)
  2533  04BF  0850               	movf	(sprintf@width+1)^(0+128),w
  2534  04C0  00A3               	movwf	(___wmul@multiplicand+1)^(0+128)
  2535  04C1  084F               	movf	sprintf@width^(0+128),w
  2536  04C2  00A2               	movwf	___wmul@multiplicand^(0+128)
  2537  04C3  318D  255D  3184   	fcall	___wmul
  2538  04C6  0021               	movlb	1	; select bank1
  2539  04C7  0821               	movf	(?___wmul+1)^(0+128),w
  2540  04C8  00D0               	movwf	(sprintf@width+1)^(0+128)
  2541  04C9  0820               	movf	?___wmul^(0+128),w
  2542  04CA  00CF               	movwf	sprintf@width^(0+128)
  2543                           
  2544                           ;doprnt.c: 601: width += *f++ - '0';
  2545  04CB  0838               	movf	sprintf@f^(0+128),w
  2546  04CC  0084               	movwf	4
  2547  04CD  0839               	movf	(sprintf@f+1)^(0+128),w
  2548  04CE  0085               	movwf	5
  2549  04CF  0800               	movf	0,w	;code access
  2550  04D0  3ED0               	addlw	208
  2551  04D1  00C0               	movwf	??_sprintf^(0+128)
  2552  04D2  30FF               	movlw	255
  2553  04D3  1803               	skipnc
  2554  04D4  3000               	movlw	0
  2555  04D5  00C1               	movwf	(??_sprintf^(0+128)+1)
  2556  04D6  0840               	movf	??_sprintf^(0+128),w
  2557  04D7  07CF               	addwf	sprintf@width^(0+128),f
  2558  04D8  0841               	movf	(??_sprintf+1)^(0+128),w
  2559  04D9  3DD0               	addwfc	(sprintf@width+1)^(0+128),f
  2560  04DA  3001               	movlw	1
  2561  04DB  07B8               	addwf	sprintf@f^(0+128),f
  2562  04DC  3000               	movlw	0
  2563  04DD  3DB9               	addwfc	(sprintf@f+1)^(0+128),f
  2564                           
  2565                           ;doprnt.c: 602: } while(isdigit((unsigned)*f));
  2566  04DE  0838               	movf	sprintf@f^(0+128),w
  2567  04DF  0084               	movwf	4
  2568  04E0  0839               	movf	(sprintf@f+1)^(0+128),w
  2569  04E1  0085               	movwf	5
  2570  04E2  0800               	movf	0,w	;code access
  2571  04E3  318C  24DF  3184   	fcall	_isdigit
  2572  04E6  1C03               	btfss	3,0
  2573  04E7  2CF0               	goto	l2458
  2574  04E8  2CBA               	goto	l2446
  2575  04E9                     l426:	
  2576                           ;doprnt.c: 641: case 'l':
  2577                           
  2578                           ;doprnt.c: 638: goto alldone;
  2579                           
  2580                           ;doprnt.c: 637: case 0:
  2581                           
  2582                           ;doprnt.c: 635: switch(c = *f++) {
  2583                           
  2584                           ;doprnt.c: 608: }
  2585                           ;doprnt.c: 633: loop:
  2586                           
  2587                           
  2588                           ;doprnt.c: 643: flag |= 0x10;
  2589  04E9  164D               	bsf	sprintf@flag^(0+128),4
  2590                           
  2591                           ;doprnt.c: 644: goto loop;
  2592  04EA  2CF0               	goto	l2458
  2593  04EB                     l2454:	
  2594                           ;doprnt.c: 817: case 'u':
  2595                           
  2596                           ;doprnt.c: 813: continue;
  2597                           
  2598                           ;doprnt.c: 802: default:
  2599                           
  2600                           
  2601                           ;doprnt.c: 818: flag |= 0xC0;
  2602  04EB  30C0               	movlw	192
  2603  04EC  00C0               	movwf	??_sprintf^(0+128)
  2604  04ED  0840               	movf	??_sprintf^(0+128),w
  2605  04EE  04CD               	iorwf	sprintf@flag^(0+128),f
  2606                           
  2607                           ;doprnt.c: 822: }
  2608                           
  2609                           ;doprnt.c: 819: break;
  2610  04EF  2D08               	goto	l429
  2611  04F0                     l2458:	
  2612  04F0  0021               	movlb	1	; select bank1
  2613  04F1  0839               	movf	(sprintf@f+1)^(0+128),w
  2614  04F2  00C1               	movwf	(??_sprintf^(0+128)+1)
  2615  04F3  0838               	movf	sprintf@f^(0+128),w
  2616  04F4  00C0               	movwf	??_sprintf^(0+128)
  2617  04F5  0AB8               	incf	sprintf@f^(0+128),f
  2618  04F6  1903               	skipnz
  2619  04F7  0AB9               	incf	(sprintf@f+1)^(0+128),f
  2620  04F8  0840               	movf	??_sprintf^(0+128),w
  2621  04F9  0084               	movwf	4
  2622  04FA  0841               	movf	(??_sprintf+1)^(0+128),w
  2623  04FB  0085               	movwf	5
  2624  04FC  0800               	movf	0,w	;code access
  2625  04FD  00D1               	movwf	sprintf@c^(0+128)
  2626                           
  2627                           ; Switch size 1, requested type "space"
  2628                           ; Number of cases is 3, Range of values is 0 to 117
  2629                           ; switch strategies available:
  2630                           ; Name         Instructions Cycles
  2631                           ; simple_byte           10     6 (average)
  2632                           ; direct_byte          242     6 (fixed)
  2633                           ; jumptable            260     6 (fixed)
  2634                           ;	Chosen strategy is simple_byte
  2635  04FE  3A00               	xorlw	0	; case 0
  2636  04FF  1903               	skipnz
  2637  0500  2DFA               	goto	l2516
  2638  0501  3A6C               	xorlw	108	; case 108
  2639  0502  1903               	skipnz
  2640  0503  2CE9               	goto	l426
  2641  0504  3A19               	xorlw	25	; case 117
  2642  0505  1903               	skipnz
  2643  0506  2CEB               	goto	l2454
  2644  0507  2C79               	goto	l2514
  2645  0508                     l429:	
  2646                           
  2647                           ;doprnt.c: 1273: {
  2648                           ;doprnt.c: 1281: if(flag & 0x10)
  2649  0508  1E4D               	btfss	sprintf@flag^(0+128),4
  2650  0509  2D17               	goto	l2464
  2651                           
  2652                           ;doprnt.c: 1282: val = (*(unsigned long *)__va_arg((*(unsigned long **)ap), (unsigned lo
      +                          ng)0));
  2653  050A  084C               	movf	sprintf@ap^(0+128),w
  2654  050B  0086               	movwf	6
  2655  050C  0187               	clrf	7
  2656  050D  3F40               	moviw [0]fsr1
  2657  050E  00C8               	movwf	sprintf@val^(0+128)
  2658  050F  3F41               	moviw [1]fsr1
  2659  0510  00C9               	movwf	(sprintf@val+1)^(0+128)
  2660  0511  3F42               	moviw [2]fsr1
  2661  0512  00CA               	movwf	(sprintf@val+2)^(0+128)
  2662  0513  3F43               	moviw [3]fsr1
  2663  0514  00CB               	movwf	(sprintf@val+3)^(0+128)
  2664  0515  3004               	movlw	4
  2665  0516  2D25               	goto	L2
  2666  0517                     l2464:	
  2667                           
  2668                           ;doprnt.c: 1283: else
  2669                           ;doprnt.c: 1286: val = (*(unsigned *)__va_arg((*(unsigned **)ap), (unsigned)0));
  2670  0517  084C               	movf	sprintf@ap^(0+128),w
  2671  0518  0086               	movwf	6
  2672  0519  0187               	clrf	7
  2673  051A  3F40               	moviw [0]fsr1
  2674  051B  00C0               	movwf	??_sprintf^(0+128)
  2675  051C  3F41               	moviw [1]fsr1
  2676  051D  00C1               	movwf	(??_sprintf^(0+128)+1)
  2677  051E  0840               	movf	??_sprintf^(0+128),w
  2678  051F  00C8               	movwf	sprintf@val^(0+128)
  2679  0520  0841               	movf	(??_sprintf+1)^(0+128),w
  2680  0521  00C9               	movwf	(sprintf@val^(0+128)+1)
  2681  0522  01CA               	clrf	(sprintf@val^(0+128)+2)
  2682  0523  01CB               	clrf	(sprintf@val^(0+128)+3)
  2683  0524  3002               	movlw	2
  2684  0525                     L2:	
  2685  0525  00C0               	movwf	??_sprintf^(0+128)
  2686  0526  0840               	movf	??_sprintf^(0+128),w
  2687  0527  07CC               	addwf	sprintf@ap^(0+128),f
  2688                           
  2689                           ;doprnt.c: 1287: }
  2690                           ;doprnt.c: 1305: for(c = 1 ; c != sizeof dpowers/sizeof dpowers[0] ; c++)
  2691  0528  01D1               	clrf	sprintf@c^(0+128)
  2692  0529  0AD1               	incf	sprintf@c^(0+128),f
  2693  052A  300A               	movlw	10
  2694  052B  0651               	xorwf	sprintf@c^(0+128),w
  2695  052C  1903               	btfsc	3,2
  2696  052D  2D5B               	goto	l2480
  2697  052E                     l2474:	
  2698                           
  2699                           ;doprnt.c: 1306: if(val < dpowers[c])
  2700  052E  0851               	movf	sprintf@c^(0+128),w
  2701  052F  00C0               	movwf	??_sprintf^(0+128)
  2702  0530  01C1               	clrf	(??_sprintf^(0+128)+1)
  2703  0531  35C0               	lslf	??_sprintf^(0+128),f
  2704  0532  0DC1               	rlf	(??_sprintf^(0+128)+1),f
  2705  0533  35C0               	lslf	??_sprintf^(0+128),f
  2706  0534  0DC1               	rlf	(??_sprintf^(0+128)+1),f
  2707  0535  30FD               	movlw	low (_dpowers| (0+32768))
  2708  0536  0740               	addwf	??_sprintf^(0+128),w
  2709  0537  0084               	movwf	4
  2710  0538  3087               	movlw	high (_dpowers| (0+32768))
  2711  0539  3D41               	addwfc	(??_sprintf+1)^(0+128),w
  2712  053A  0085               	movwf	5
  2713  053B  3F00               	moviw [0]fsr0
  2714  053C  00C2               	movwf	(??_sprintf+2)^(0+128)
  2715  053D  3F01               	moviw [1]fsr0
  2716  053E  00C3               	movwf	((??_sprintf+2)^(0+128)+1)
  2717  053F  3F02               	moviw [2]fsr0
  2718  0540  00C4               	movwf	((??_sprintf+2)^(0+128)+2)
  2719  0541  3F03               	moviw [3]fsr0
  2720  0542  00C5               	movwf	((??_sprintf+2)^(0+128)+3)
  2721  0543  0845               	movf	(??_sprintf+5)^(0+128),w
  2722  0544  024B               	subwf	(sprintf@val+3)^(0+128),w
  2723  0545  1D03               	skipz
  2724  0546  2D51               	goto	u2505
  2725  0547  0844               	movf	(??_sprintf+4)^(0+128),w
  2726  0548  024A               	subwf	(sprintf@val+2)^(0+128),w
  2727  0549  1D03               	skipz
  2728  054A  2D51               	goto	u2505
  2729  054B  0843               	movf	(??_sprintf+3)^(0+128),w
  2730  054C  0249               	subwf	(sprintf@val+1)^(0+128),w
  2731  054D  1D03               	skipz
  2732  054E  2D51               	goto	u2505
  2733  054F  0842               	movf	(??_sprintf+2)^(0+128),w
  2734  0550  0248               	subwf	sprintf@val^(0+128),w
  2735  0551                     u2505:	
  2736  0551  1C03               	btfss	3,0
  2737  0552  2D5B               	goto	l2480
  2738                           
  2739                           ;doprnt.c: 1307: break;
  2740  0553  3001               	movlw	1
  2741  0554  00C0               	movwf	??_sprintf^(0+128)
  2742  0555  0840               	movf	??_sprintf^(0+128),w
  2743  0556  07D1               	addwf	sprintf@c^(0+128),f
  2744  0557  300A               	movlw	10
  2745  0558  0651               	xorwf	sprintf@c^(0+128),w
  2746  0559  1D03               	btfss	3,2
  2747  055A  2D2E               	goto	l2474
  2748  055B                     l2480:	
  2749                           
  2750                           ;doprnt.c: 1381: if(width > c)
  2751  055B  0851               	movf	sprintf@c^(0+128),w
  2752  055C  00C0               	movwf	??_sprintf^(0+128)
  2753  055D  01C1               	clrf	(??_sprintf^(0+128)+1)
  2754  055E  1BC0               	btfsc	??_sprintf^(0+128),7
  2755  055F  03C1               	decf	(??_sprintf^(0+128)+1),f
  2756  0560  0841               	movf	(??_sprintf+1)^(0+128),w
  2757  0561  3A80               	xorlw	128
  2758  0562  00C2               	movwf	(??_sprintf+2)^(0+128)
  2759  0563  0850               	movf	(sprintf@width+1)^(0+128),w
  2760  0564  3A80               	xorlw	128
  2761  0565  0242               	subwf	(??_sprintf+2)^(0+128),w
  2762  0566  1D03               	skipz
  2763  0567  2D6A               	goto	u2525
  2764  0568  084F               	movf	sprintf@width^(0+128),w
  2765  0569  0240               	subwf	??_sprintf^(0+128),w
  2766  056A                     u2525:	
  2767  056A  1803               	skipnc
  2768  056B  2D77               	goto	l2484
  2769                           
  2770                           ;doprnt.c: 1382: width -= c;
  2771  056C  0021               	movlb	1	; select bank1
  2772  056D  0851               	movf	sprintf@c^(0+128),w
  2773  056E  00C0               	movwf	??_sprintf^(0+128)
  2774  056F  01C1               	clrf	(??_sprintf^(0+128)+1)
  2775  0570  1BC0               	btfsc	??_sprintf^(0+128),7
  2776  0571  03C1               	decf	(??_sprintf^(0+128)+1),f
  2777  0572  0840               	movf	??_sprintf^(0+128),w
  2778  0573  02CF               	subwf	sprintf@width^(0+128),f
  2779  0574  0841               	movf	(??_sprintf+1)^(0+128),w
  2780  0575  3BD0               	subwfb	(sprintf@width+1)^(0+128),f
  2781  0576  2D7A               	goto	l2486
  2782  0577                     l2484:	
  2783                           
  2784                           ;doprnt.c: 1383: else
  2785                           ;doprnt.c: 1384: width = 0;
  2786  0577  0021               	movlb	1	; select bank1
  2787  0578  01CF               	clrf	sprintf@width^(0+128)
  2788  0579  01D0               	clrf	(sprintf@width+1)^(0+128)
  2789  057A                     l2486:	
  2790                           
  2791                           ;doprnt.c: 1387: if(flag & 0x04) {
  2792  057A  1D4D               	btfss	sprintf@flag^(0+128),2
  2793  057B  2D90               	goto	l2496
  2794  057C                     L3:	
  2795                           
  2796                           ;doprnt.c: 1415: if(width)
  2797  057C  084F               	movf	sprintf@width^(0+128),w
  2798  057D  0450               	iorwf	(sprintf@width+1)^(0+128),w
  2799  057E  1903               	btfsc	3,2
  2800  057F  2DA7               	goto	l2504
  2801                           
  2802                           ;doprnt.c: 1417: ((*sp++ = ('0')));
  2803                           
  2804                           ;doprnt.c: 1416: do
  2805  0580  3030               	movlw	48
  2806  0581  00C0               	movwf	??_sprintf^(0+128)
  2807  0582  084E               	movf	sprintf@sp^(0+128),w
  2808  0583  0086               	movwf	6
  2809  0584  0187               	clrf	7
  2810  0585  0840               	movf	??_sprintf^(0+128),w
  2811  0586  0081               	movwf	1
  2812  0587  3001               	movlw	1
  2813  0588  00C0               	movwf	??_sprintf^(0+128)
  2814  0589  0840               	movf	??_sprintf^(0+128),w
  2815  058A  07CE               	addwf	sprintf@sp^(0+128),f
  2816                           
  2817                           ;doprnt.c: 1418: while(--width);
  2818  058B  30FF               	movlw	255
  2819  058C  07CF               	addwf	sprintf@width^(0+128),f
  2820  058D  30FF               	movlw	255
  2821  058E  3DD0               	addwfc	(sprintf@width+1)^(0+128),f
  2822  058F  2D7C               	goto	L3
  2823  0590                     l2496:	
  2824                           ;doprnt.c: 1420: } else
  2825                           
  2826                           
  2827                           ;doprnt.c: 1422: {
  2828                           ;doprnt.c: 1424: if(width
  2829                           ;doprnt.c: 1428: )
  2830  0590  084F               	movf	sprintf@width^(0+128),w
  2831  0591  0450               	iorwf	(sprintf@width+1)^(0+128),w
  2832  0592  1903               	btfsc	3,2
  2833  0593  2DA7               	goto	l2504
  2834  0594                     l2498:	
  2835                           ;doprnt.c: 1429: do
  2836                           
  2837                           
  2838                           ;doprnt.c: 1430: ((*sp++ = (' ')));
  2839  0594  3020               	movlw	32
  2840  0595  00C0               	movwf	??_sprintf^(0+128)
  2841  0596  084E               	movf	sprintf@sp^(0+128),w
  2842  0597  0086               	movwf	6
  2843  0598  0187               	clrf	7
  2844  0599  0840               	movf	??_sprintf^(0+128),w
  2845  059A  0081               	movwf	1
  2846  059B  3001               	movlw	1
  2847  059C  00C0               	movwf	??_sprintf^(0+128)
  2848  059D  0840               	movf	??_sprintf^(0+128),w
  2849  059E  07CE               	addwf	sprintf@sp^(0+128),f
  2850                           
  2851                           ;doprnt.c: 1431: while(--width);
  2852  059F  30FF               	movlw	255
  2853  05A0  07CF               	addwf	sprintf@width^(0+128),f
  2854  05A1  30FF               	movlw	255
  2855  05A2  3DD0               	addwfc	(sprintf@width+1)^(0+128),f
  2856  05A3  084F               	movf	sprintf@width^(0+128),w
  2857  05A4  0450               	iorwf	(sprintf@width+1)^(0+128),w
  2858  05A5  1D03               	btfss	3,2
  2859  05A6  2D94               	goto	l2498
  2860  05A7                     l2504:	
  2861                           
  2862                           ;doprnt.c: 1469: }
  2863                           ;doprnt.c: 1472: prec = c;
  2864  05A7  0851               	movf	sprintf@c^(0+128),w
  2865  05A8  00C6               	movwf	sprintf@prec^(0+128)
  2866  05A9  01C7               	clrf	(sprintf@prec+1)^(0+128)
  2867  05AA  1BC6               	btfsc	sprintf@prec^(0+128),7
  2868  05AB  03C7               	decf	(sprintf@prec+1)^(0+128),f
  2869  05AC                     l2512:	
  2870                           ;doprnt.c: 1474: while(prec--) {
  2871                           
  2872  05AC  30FF               	movlw	255
  2873  05AD  07C6               	addwf	sprintf@prec^(0+128),f
  2874  05AE  30FF               	movlw	255
  2875  05AF  3DC7               	addwfc	(sprintf@prec+1)^(0+128),f
  2876  05B0  0A46               	incf	sprintf@prec^(0+128),w
  2877  05B1  1903               	btfsc	3,2
  2878  05B2  0A47               	incf	(sprintf@prec+1)^(0+128),w
  2879  05B3  1903               	btfsc	3,2
  2880  05B4  2C79               	goto	l2514
  2881                           
  2882                           ;doprnt.c: 1478: {
  2883                           ;doprnt.c: 1489: c = (val / dpowers[prec]) % 10 + '0';
  2884  05B5  3000               	movlw	0
  2885  05B6  00B1               	movwf	(___llmod@divisor+3)^(0+128)
  2886  05B7  3000               	movlw	0
  2887  05B8  00B0               	movwf	(___llmod@divisor+2)^(0+128)
  2888  05B9  3000               	movlw	0
  2889  05BA  00AF               	movwf	(___llmod@divisor+1)^(0+128)
  2890  05BB  300A               	movlw	10
  2891  05BC  00AE               	movwf	___llmod@divisor^(0+128)
  2892  05BD  0847               	movf	(sprintf@prec+1)^(0+128),w
  2893  05BE  0085               	movwf	5
  2894  05BF  0846               	movf	sprintf@prec^(0+128),w
  2895  05C0  0084               	movwf	4
  2896  05C1  3584               	lslf	4,f
  2897  05C2  0D85               	rlf	5,f
  2898  05C3  3584               	lslf	4,f
  2899  05C4  0D85               	rlf	5,f
  2900  05C5  30FD               	movlw	low (_dpowers| (0+32768))
  2901  05C6  0784               	addwf	4,f
  2902  05C7  3087               	movlw	high (_dpowers| (0+32768))
  2903  05C8  3D85               	addwfc	5,f
  2904  05C9  3F00               	moviw [0]fsr0
  2905  05CA  00A0               	movwf	___lldiv@divisor^(0+128)
  2906  05CB  3F01               	moviw [1]fsr0
  2907  05CC  00A1               	movwf	(___lldiv@divisor+1)^(0+128)
  2908  05CD  3F02               	moviw [2]fsr0
  2909  05CE  00A2               	movwf	(___lldiv@divisor+2)^(0+128)
  2910  05CF  3F03               	moviw [3]fsr0
  2911  05D0  00A3               	movwf	(___lldiv@divisor+3)^(0+128)
  2912  05D1  084B               	movf	(sprintf@val+3)^(0+128),w
  2913  05D2  00A7               	movwf	(___lldiv@dividend+3)^(0+128)
  2914  05D3  084A               	movf	(sprintf@val+2)^(0+128),w
  2915  05D4  00A6               	movwf	(___lldiv@dividend+2)^(0+128)
  2916  05D5  0849               	movf	(sprintf@val+1)^(0+128),w
  2917  05D6  00A5               	movwf	(___lldiv@dividend+1)^(0+128)
  2918  05D7  0848               	movf	sprintf@val^(0+128),w
  2919  05D8  00A4               	movwf	___lldiv@dividend^(0+128)
  2920  05D9  3187  27AA  3184   	fcall	___lldiv
  2921  05DC  0021               	movlb	1	; select bank1
  2922  05DD  0823               	movf	(?___lldiv+3)^(0+128),w
  2923  05DE  00B5               	movwf	(___llmod@dividend+3)^(0+128)
  2924  05DF  0822               	movf	(?___lldiv+2)^(0+128),w
  2925  05E0  00B4               	movwf	(___llmod@dividend+2)^(0+128)
  2926  05E1  0821               	movf	(?___lldiv+1)^(0+128),w
  2927  05E2  00B3               	movwf	(___llmod@dividend+1)^(0+128)
  2928  05E3  0820               	movf	?___lldiv^(0+128),w
  2929  05E4  00B2               	movwf	___llmod@dividend^(0+128)
  2930  05E5  318E  2650  3184   	fcall	___llmod
  2931  05E8  0021               	movlb	1	; select bank1
  2932  05E9  082E               	movf	?___llmod^(0+128),w
  2933  05EA  3E30               	addlw	48
  2934  05EB  00C0               	movwf	??_sprintf^(0+128)
  2935  05EC  0840               	movf	??_sprintf^(0+128),w
  2936  05ED  00D1               	movwf	sprintf@c^(0+128)
  2937                           
  2938                           ;doprnt.c: 1523: }
  2939                           ;doprnt.c: 1524: ((*sp++ = (c)));
  2940  05EE  0851               	movf	sprintf@c^(0+128),w
  2941  05EF  00C0               	movwf	??_sprintf^(0+128)
  2942  05F0  084E               	movf	sprintf@sp^(0+128),w
  2943  05F1  0086               	movwf	6
  2944  05F2  0187               	clrf	7
  2945  05F3  0840               	movf	??_sprintf^(0+128),w
  2946  05F4  0081               	movwf	1
  2947  05F5  3001               	movlw	1
  2948  05F6  00C0               	movwf	??_sprintf^(0+128)
  2949  05F7  0840               	movf	??_sprintf^(0+128),w
  2950  05F8  07CE               	addwf	sprintf@sp^(0+128),f
  2951  05F9  2DAC               	goto	l2512
  2952  05FA                     l2516:	
  2953                           ;doprnt.c: 1525: }
  2954                           ;doprnt.c: 1533: }
  2955                           ;doprnt.c: 1535: alldone:
  2956                           
  2957                           
  2958                           ;doprnt.c: 1538: *sp = 0;
  2959  05FA  0021               	movlb	1	; select bank1
  2960  05FB  084E               	movf	sprintf@sp^(0+128),w
  2961  05FC  0086               	movwf	6
  2962  05FD  0187               	clrf	7
  2963  05FE  0181               	clrf	1
  2964  05FF  0008               	return
  2965  0600                     __end_of_sprintf:	
  2966                           ;doprnt.c: 1540: return 0;
  2967                           ;	Return value of _sprintf is never used
  2968                           
  2969                           
  2970                           	psect	text2
  2971  0CDF                     __ptext2:	
  2972 ;; *************** function _isdigit *****************
  2973 ;; Defined at:
  2974 ;;		line 8 in file "C:\Program Files (x86)\Microchip\xc8\v1.45\sources\common\isdigit.c"
  2975 ;; Parameters:    Size  Location     Type
  2976 ;;  c               1    wreg     unsigned char 
  2977 ;; Auto vars:     Size  Location     Type
  2978 ;;  c               1    1[BANK1 ] unsigned char 
  2979 ;; Return value:  Size  Location     Type
  2980 ;;		None               void
  2981 ;; Registers used:
  2982 ;;		wreg, status,2, status,0
  2983 ;; Tracked objects:
  2984 ;;		On entry : 0/0
  2985 ;;		On exit  : 0/0
  2986 ;;		Unchanged: 0/0
  2987 ;; Data sizes:     COMMON   BANK0   BANK1   BANK2   BANK3   BANK4
  2988 ;;      Params:         0       0       0       0       0       0
  2989 ;;      Locals:         0       0       2       0       0       0
  2990 ;;      Temps:          0       0       0       0       0       0
  2991 ;;      Totals:         0       0       2       0       0       0
  2992 ;;Total ram usage:        2 bytes
  2993 ;; Hardware stack levels used:    1
  2994 ;; Hardware stack levels required when called:    3
  2995 ;; This function calls:
  2996 ;;		Nothing
  2997 ;; This function is called by:
  2998 ;;		_sprintf
  2999 ;; This function uses a non-reentrant model
  3000 ;;
  3001                           
  3002                           
  3003                           ;psect for function _isdigit
  3004  0CDF                     _isdigit:	
  3005                           
  3006                           ;incstack = 0
  3007                           ; Regs used in _isdigit: [wreg+status,2+status,0]
  3008                           ;isdigit@c stored from wreg
  3009  0CDF  0021               	movlb	1	; select bank1
  3010  0CE0  00A1               	movwf	isdigit@c^(0+128)
  3011  0CE1  01A0               	clrf	_isdigit$517^(0+128)
  3012  0CE2  303A               	movlw	58
  3013  0CE3  0221               	subwf	isdigit@c^(0+128),w
  3014  0CE4  1803               	skipnc
  3015  0CE5  2CEC               	goto	l2174
  3016  0CE6  3030               	movlw	48
  3017  0CE7  0221               	subwf	isdigit@c^(0+128),w
  3018  0CE8  1C03               	skipc
  3019  0CE9  2CEC               	goto	l2174
  3020  0CEA  01A0               	clrf	_isdigit$517^(0+128)
  3021  0CEB  0AA0               	incf	_isdigit$517^(0+128),f
  3022  0CEC                     l2174:	
  3023  0CEC  0C20               	rrf	_isdigit$517^(0+128),w
  3024  0CED  0008               	return
  3025  0CEE                     __end_of_isdigit:	
  3026                           
  3027                           	psect	text3
  3028  0D5D                     __ptext3:	
  3029 ;; *************** function ___wmul *****************
  3030 ;; Defined at:
  3031 ;;		line 15 in file "C:\Program Files (x86)\Microchip\xc8\v1.45\sources\common\Umul16.c"
  3032 ;; Parameters:    Size  Location     Type
  3033 ;;  multiplier      2    0[BANK1 ] unsigned int 
  3034 ;;  multiplicand    2    2[BANK1 ] unsigned int 
  3035 ;; Auto vars:     Size  Location     Type
  3036 ;;  product         2    4[BANK1 ] unsigned int 
  3037 ;; Return value:  Size  Location     Type
  3038 ;;                  2    0[BANK1 ] unsigned int 
  3039 ;; Registers used:
  3040 ;;		wreg, status,2, status,0
  3041 ;; Tracked objects:
  3042 ;;		On entry : 0/0
  3043 ;;		On exit  : 0/0
  3044 ;;		Unchanged: 0/0
  3045 ;; Data sizes:     COMMON   BANK0   BANK1   BANK2   BANK3   BANK4
  3046 ;;      Params:         0       0       4       0       0       0
  3047 ;;      Locals:         0       0       2       0       0       0
  3048 ;;      Temps:          0       0       0       0       0       0
  3049 ;;      Totals:         0       0       6       0       0       0
  3050 ;;Total ram usage:        6 bytes
  3051 ;; Hardware stack levels used:    1
  3052 ;; Hardware stack levels required when called:    3
  3053 ;; This function calls:
  3054 ;;		Nothing
  3055 ;; This function is called by:
  3056 ;;		_sprintf
  3057 ;;		_LCD_PageSet
  3058 ;;		_LCD_PageClear
  3059 ;;		_LCD_PageSetCursor
  3060 ;; This function uses a non-reentrant model
  3061 ;;
  3062                           
  3063                           
  3064                           ;psect for function ___wmul
  3065  0D5D                     ___wmul:	
  3066                           
  3067                           ;incstack = 0
  3068                           ; Regs used in ___wmul: [wreg+status,2+status,0]
  3069  0D5D  0021               	movlb	1	; select bank1
  3070  0D5E  01A4               	clrf	___wmul@product^(0+128)
  3071  0D5F  01A5               	clrf	(___wmul@product+1)^(0+128)
  3072  0D60                     l2180:	
  3073  0D60  1C20               	btfss	___wmul@multiplier^(0+128),0
  3074  0D61  2D66               	goto	l533
  3075  0D62  0822               	movf	___wmul@multiplicand^(0+128),w
  3076  0D63  07A4               	addwf	___wmul@product^(0+128),f
  3077  0D64  0823               	movf	(___wmul@multiplicand+1)^(0+128),w
  3078  0D65  3DA5               	addwfc	(___wmul@product+1)^(0+128),f
  3079  0D66                     l533:	
  3080  0D66  3001               	movlw	1
  3081  0D67                     u2025:	
  3082  0D67  35A2               	lslf	___wmul@multiplicand^(0+128),f
  3083  0D68  0DA3               	rlf	(___wmul@multiplicand+1)^(0+128),f
  3084  0D69  0B89               	decfsz	9,f
  3085  0D6A  2D67               	goto	u2025
  3086  0D6B  3001               	movlw	1
  3087  0D6C                     u2035:	
  3088  0D6C  36A1               	lsrf	(___wmul@multiplier+1)^(0+128),f
  3089  0D6D  0CA0               	rrf	___wmul@multiplier^(0+128),f
  3090  0D6E  0B89               	decfsz	9,f
  3091  0D6F  2D6C               	goto	u2035
  3092  0D70  0820               	movf	___wmul@multiplier^(0+128),w
  3093  0D71  0421               	iorwf	(___wmul@multiplier+1)^(0+128),w
  3094  0D72  1D03               	btfss	3,2
  3095  0D73  2D60               	goto	l2180
  3096  0D74  0825               	movf	(___wmul@product+1)^(0+128),w
  3097  0D75  00A1               	movwf	(?___wmul+1)^(0+128)
  3098  0D76  0824               	movf	___wmul@product^(0+128),w
  3099  0D77  00A0               	movwf	?___wmul^(0+128)
  3100  0D78  0008               	return
  3101  0D79                     __end_of___wmul:	
  3102                           
  3103                           	psect	text4
  3104  0E50                     __ptext4:	
  3105 ;; *************** function ___llmod *****************
  3106 ;; Defined at:
  3107 ;;		line 6 in file "C:\Program Files (x86)\Microchip\xc8\v1.45\sources\common\llmod.c"
  3108 ;; Parameters:    Size  Location     Type
  3109 ;;  divisor         4   14[BANK1 ] unsigned long 
  3110 ;;  dividend        4   18[BANK1 ] unsigned long 
  3111 ;; Auto vars:     Size  Location     Type
  3112 ;;  counter         1   23[BANK1 ] unsigned char 
  3113 ;; Return value:  Size  Location     Type
  3114 ;;                  4   14[BANK1 ] unsigned long 
  3115 ;; Registers used:
  3116 ;;		wreg, status,2, status,0
  3117 ;; Tracked objects:
  3118 ;;		On entry : 0/0
  3119 ;;		On exit  : 0/0
  3120 ;;		Unchanged: 0/0
  3121 ;; Data sizes:     COMMON   BANK0   BANK1   BANK2   BANK3   BANK4
  3122 ;;      Params:         0       0       8       0       0       0
  3123 ;;      Locals:         0       0       1       0       0       0
  3124 ;;      Temps:          0       0       1       0       0       0
  3125 ;;      Totals:         0       0      10       0       0       0
  3126 ;;Total ram usage:       10 bytes
  3127 ;; Hardware stack levels used:    1
  3128 ;; Hardware stack levels required when called:    3
  3129 ;; This function calls:
  3130 ;;		Nothing
  3131 ;; This function is called by:
  3132 ;;		_sprintf
  3133 ;; This function uses a non-reentrant model
  3134 ;;
  3135                           
  3136                           
  3137                           ;psect for function ___llmod
  3138  0E50                     ___llmod:	
  3139                           
  3140                           ;incstack = 0
  3141                           ; Regs used in ___llmod: [wreg+status,2+status,0]
  3142  0E50  0021               	movlb	1	; select bank1
  3143  0E51  0831               	movf	(___llmod@divisor+3)^(0+128),w
  3144  0E52  0430               	iorwf	(___llmod@divisor+2)^(0+128),w
  3145  0E53  042F               	iorwf	(___llmod@divisor+1)^(0+128),w
  3146  0E54  042E               	iorwf	___llmod@divisor^(0+128),w
  3147  0E55  1903               	skipnz
  3148  0E56  2E8A               	goto	l2264
  3149  0E57  01B7               	clrf	___llmod@counter^(0+128)
  3150  0E58  0AB7               	incf	___llmod@counter^(0+128),f
  3151  0E59                     l2254:	
  3152  0E59  1BB1               	btfsc	(___llmod@divisor+3)^(0+128),7
  3153  0E5A  2E67               	goto	l2256
  3154  0E5B  3001               	movlw	1
  3155  0E5C                     u2255:	
  3156  0E5C  35AE               	lslf	___llmod@divisor^(0+128),f
  3157  0E5D  0DAF               	rlf	(___llmod@divisor+1)^(0+128),f
  3158  0E5E  0DB0               	rlf	(___llmod@divisor+2)^(0+128),f
  3159  0E5F  0DB1               	rlf	(___llmod@divisor+3)^(0+128),f
  3160  0E60  0B89               	decfsz	9,f
  3161  0E61  2E5C               	goto	u2255
  3162  0E62  3001               	movlw	1
  3163  0E63  00B6               	movwf	??___llmod^(0+128)
  3164  0E64  0836               	movf	??___llmod^(0+128),w
  3165  0E65  07B7               	addwf	___llmod@counter^(0+128),f
  3166  0E66  2E59               	goto	l2254
  3167  0E67                     l2256:	
  3168  0E67  0831               	movf	(___llmod@divisor+3)^(0+128),w
  3169  0E68  0235               	subwf	(___llmod@dividend+3)^(0+128),w
  3170  0E69  1D03               	skipz
  3171  0E6A  2E75               	goto	u2275
  3172  0E6B  0830               	movf	(___llmod@divisor+2)^(0+128),w
  3173  0E6C  0234               	subwf	(___llmod@dividend+2)^(0+128),w
  3174  0E6D  1D03               	skipz
  3175  0E6E  2E75               	goto	u2275
  3176  0E6F  082F               	movf	(___llmod@divisor+1)^(0+128),w
  3177  0E70  0233               	subwf	(___llmod@dividend+1)^(0+128),w
  3178  0E71  1D03               	skipz
  3179  0E72  2E75               	goto	u2275
  3180  0E73  082E               	movf	___llmod@divisor^(0+128),w
  3181  0E74  0232               	subwf	___llmod@dividend^(0+128),w
  3182  0E75                     u2275:	
  3183  0E75  1C03               	skipc
  3184  0E76  2E7F               	goto	l2260
  3185  0E77  082E               	movf	___llmod@divisor^(0+128),w
  3186  0E78  02B2               	subwf	___llmod@dividend^(0+128),f
  3187  0E79  082F               	movf	(___llmod@divisor+1)^(0+128),w
  3188  0E7A  3BB3               	subwfb	(___llmod@dividend+1)^(0+128),f
  3189  0E7B  0830               	movf	(___llmod@divisor+2)^(0+128),w
  3190  0E7C  3BB4               	subwfb	(___llmod@dividend+2)^(0+128),f
  3191  0E7D  0831               	movf	(___llmod@divisor+3)^(0+128),w
  3192  0E7E  3BB5               	subwfb	(___llmod@dividend+3)^(0+128),f
  3193  0E7F                     l2260:	
  3194  0E7F  3001               	movlw	1
  3195  0E80                     u2285:	
  3196  0E80  36B1               	lsrf	(___llmod@divisor+3)^(0+128),f
  3197  0E81  0CB0               	rrf	(___llmod@divisor+2)^(0+128),f
  3198  0E82  0CAF               	rrf	(___llmod@divisor+1)^(0+128),f
  3199  0E83  0CAE               	rrf	___llmod@divisor^(0+128),f
  3200  0E84  0B89               	decfsz	9,f
  3201  0E85  2E80               	goto	u2285
  3202  0E86  3001               	movlw	1
  3203  0E87  02B7               	subwf	___llmod@counter^(0+128),f
  3204  0E88  1D03               	btfss	3,2
  3205  0E89  2E67               	goto	l2256
  3206  0E8A                     l2264:	
  3207  0E8A  0835               	movf	(___llmod@dividend+3)^(0+128),w
  3208  0E8B  00B1               	movwf	(?___llmod+3)^(0+128)
  3209  0E8C  0834               	movf	(___llmod@dividend+2)^(0+128),w
  3210  0E8D  00B0               	movwf	(?___llmod+2)^(0+128)
  3211  0E8E  0833               	movf	(___llmod@dividend+1)^(0+128),w
  3212  0E8F  00AF               	movwf	(?___llmod+1)^(0+128)
  3213  0E90  0832               	movf	___llmod@dividend^(0+128),w
  3214  0E91  00AE               	movwf	?___llmod^(0+128)
  3215  0E92  0008               	return
  3216  0E93                     __end_of___llmod:	
  3217                           
  3218                           	psect	text5
  3219  07AA                     __ptext5:	
  3220 ;; *************** function ___lldiv *****************
  3221 ;; Defined at:
  3222 ;;		line 6 in file "C:\Program Files (x86)\Microchip\xc8\v1.45\sources\common\lldiv.c"
  3223 ;; Parameters:    Size  Location     Type
  3224 ;;  divisor         4    0[BANK1 ] unsigned long 
  3225 ;;  dividend        4    4[BANK1 ] unsigned long 
  3226 ;; Auto vars:     Size  Location     Type
  3227 ;;  quotient        4    9[BANK1 ] unsigned long 
  3228 ;;  counter         1   13[BANK1 ] unsigned char 
  3229 ;; Return value:  Size  Location     Type
  3230 ;;                  4    0[BANK1 ] unsigned long 
  3231 ;; Registers used:
  3232 ;;		wreg, status,2, status,0
  3233 ;; Tracked objects:
  3234 ;;		On entry : 0/0
  3235 ;;		On exit  : 0/0
  3236 ;;		Unchanged: 0/0
  3237 ;; Data sizes:     COMMON   BANK0   BANK1   BANK2   BANK3   BANK4
  3238 ;;      Params:         0       0       8       0       0       0
  3239 ;;      Locals:         0       0       5       0       0       0
  3240 ;;      Temps:          0       0       1       0       0       0
  3241 ;;      Totals:         0       0      14       0       0       0
  3242 ;;Total ram usage:       14 bytes
  3243 ;; Hardware stack levels used:    1
  3244 ;; Hardware stack levels required when called:    3
  3245 ;; This function calls:
  3246 ;;		Nothing
  3247 ;; This function is called by:
  3248 ;;		_sprintf
  3249 ;; This function uses a non-reentrant model
  3250 ;;
  3251                           
  3252                           
  3253                           ;psect for function ___lldiv
  3254  07AA                     ___lldiv:	
  3255                           
  3256                           ;incstack = 0
  3257                           ; Regs used in ___lldiv: [wreg+status,2+status,0]
  3258  07AA  3000               	movlw	0
  3259  07AB  0021               	movlb	1	; select bank1
  3260  07AC  00AC               	movwf	(___lldiv@quotient+3)^(0+128)
  3261  07AD  3000               	movlw	0
  3262  07AE  00AB               	movwf	(___lldiv@quotient+2)^(0+128)
  3263  07AF  3000               	movlw	0
  3264  07B0  00AA               	movwf	(___lldiv@quotient+1)^(0+128)
  3265  07B1  3000               	movlw	0
  3266  07B2  00A9               	movwf	___lldiv@quotient^(0+128)
  3267  07B3  0823               	movf	(___lldiv@divisor+3)^(0+128),w
  3268  07B4  0422               	iorwf	(___lldiv@divisor+2)^(0+128),w
  3269  07B5  0421               	iorwf	(___lldiv@divisor+1)^(0+128),w
  3270  07B6  0420               	iorwf	___lldiv@divisor^(0+128),w
  3271  07B7  1903               	skipnz
  3272  07B8  2FF4               	goto	l2244
  3273  07B9  01AD               	clrf	___lldiv@counter^(0+128)
  3274  07BA  0AAD               	incf	___lldiv@counter^(0+128),f
  3275  07BB                     l2230:	
  3276  07BB  1BA3               	btfsc	(___lldiv@divisor+3)^(0+128),7
  3277  07BC  2FC9               	goto	l2232
  3278  07BD  3001               	movlw	1
  3279  07BE                     u2185:	
  3280  07BE  35A0               	lslf	___lldiv@divisor^(0+128),f
  3281  07BF  0DA1               	rlf	(___lldiv@divisor+1)^(0+128),f
  3282  07C0  0DA2               	rlf	(___lldiv@divisor+2)^(0+128),f
  3283  07C1  0DA3               	rlf	(___lldiv@divisor+3)^(0+128),f
  3284  07C2  0B89               	decfsz	9,f
  3285  07C3  2FBE               	goto	u2185
  3286  07C4  3001               	movlw	1
  3287  07C5  00A8               	movwf	??___lldiv^(0+128)
  3288  07C6  0828               	movf	??___lldiv^(0+128),w
  3289  07C7  07AD               	addwf	___lldiv@counter^(0+128),f
  3290  07C8  2FBB               	goto	l2230
  3291  07C9                     l2232:	
  3292  07C9  3001               	movlw	1
  3293  07CA                     u2205:	
  3294  07CA  35A9               	lslf	___lldiv@quotient^(0+128),f
  3295  07CB  0DAA               	rlf	(___lldiv@quotient+1)^(0+128),f
  3296  07CC  0DAB               	rlf	(___lldiv@quotient+2)^(0+128),f
  3297  07CD  0DAC               	rlf	(___lldiv@quotient+3)^(0+128),f
  3298  07CE  0B89               	decfsz	9,f
  3299  07CF  2FCA               	goto	u2205
  3300  07D0  0823               	movf	(___lldiv@divisor+3)^(0+128),w
  3301  07D1  0227               	subwf	(___lldiv@dividend+3)^(0+128),w
  3302  07D2  1D03               	skipz
  3303  07D3  2FDE               	goto	u2215
  3304  07D4  0822               	movf	(___lldiv@divisor+2)^(0+128),w
  3305  07D5  0226               	subwf	(___lldiv@dividend+2)^(0+128),w
  3306  07D6  1D03               	skipz
  3307  07D7  2FDE               	goto	u2215
  3308  07D8  0821               	movf	(___lldiv@divisor+1)^(0+128),w
  3309  07D9  0225               	subwf	(___lldiv@dividend+1)^(0+128),w
  3310  07DA  1D03               	skipz
  3311  07DB  2FDE               	goto	u2215
  3312  07DC  0820               	movf	___lldiv@divisor^(0+128),w
  3313  07DD  0224               	subwf	___lldiv@dividend^(0+128),w
  3314  07DE                     u2215:	
  3315  07DE  1C03               	skipc
  3316  07DF  2FE9               	goto	l2240
  3317  07E0  0820               	movf	___lldiv@divisor^(0+128),w
  3318  07E1  02A4               	subwf	___lldiv@dividend^(0+128),f
  3319  07E2  0821               	movf	(___lldiv@divisor+1)^(0+128),w
  3320  07E3  3BA5               	subwfb	(___lldiv@dividend+1)^(0+128),f
  3321  07E4  0822               	movf	(___lldiv@divisor+2)^(0+128),w
  3322  07E5  3BA6               	subwfb	(___lldiv@dividend+2)^(0+128),f
  3323  07E6  0823               	movf	(___lldiv@divisor+3)^(0+128),w
  3324  07E7  3BA7               	subwfb	(___lldiv@dividend+3)^(0+128),f
  3325  07E8  1429               	bsf	___lldiv@quotient^(0+128),0
  3326  07E9                     l2240:	
  3327  07E9  3001               	movlw	1
  3328  07EA                     u2225:	
  3329  07EA  36A3               	lsrf	(___lldiv@divisor+3)^(0+128),f
  3330  07EB  0CA2               	rrf	(___lldiv@divisor+2)^(0+128),f
  3331  07EC  0CA1               	rrf	(___lldiv@divisor+1)^(0+128),f
  3332  07ED  0CA0               	rrf	___lldiv@divisor^(0+128),f
  3333  07EE  0B89               	decfsz	9,f
  3334  07EF  2FEA               	goto	u2225
  3335  07F0  3001               	movlw	1
  3336  07F1  02AD               	subwf	___lldiv@counter^(0+128),f
  3337  07F2  1D03               	btfss	3,2
  3338  07F3  2FC9               	goto	l2232
  3339  07F4                     l2244:	
  3340  07F4  082C               	movf	(___lldiv@quotient+3)^(0+128),w
  3341  07F5  00A3               	movwf	(?___lldiv+3)^(0+128)
  3342  07F6  082B               	movf	(___lldiv@quotient+2)^(0+128),w
  3343  07F7  00A2               	movwf	(?___lldiv+2)^(0+128)
  3344  07F8  082A               	movf	(___lldiv@quotient+1)^(0+128),w
  3345  07F9  00A1               	movwf	(?___lldiv+1)^(0+128)
  3346  07FA  0829               	movf	___lldiv@quotient^(0+128),w
  3347  07FB  00A0               	movwf	?___lldiv^(0+128)
  3348  07FC  0008               	return
  3349  07FD                     __end_of___lldiv:	
  3350                           
  3351                           	psect	text6
  3352  0D28                     __ptext6:	
  3353 ;; *************** function _LCD_SetCursor *****************
  3354 ;; Defined at:
  3355 ;;		line 98 in file "skI2CLCDlib.c"
  3356 ;; Parameters:    Size  Location     Type
  3357 ;;  col             2   11[BANK1 ] int 
  3358 ;;  row             2   13[BANK1 ] int 
  3359 ;; Auto vars:     Size  Location     Type
  3360 ;;  row_offsets     4   15[BANK1 ] int [2]
  3361 ;; Return value:  Size  Location     Type
  3362 ;;                  1    wreg      void 
  3363 ;; Registers used:
  3364 ;;		wreg, fsr1l, fsr1h, status,2, status,0, pclath, cstack
  3365 ;; Tracked objects:
  3366 ;;		On entry : 0/0
  3367 ;;		On exit  : 0/0
  3368 ;;		Unchanged: 0/0
  3369 ;; Data sizes:     COMMON   BANK0   BANK1   BANK2   BANK3   BANK4
  3370 ;;      Params:         0       0       4       0       0       0
  3371 ;;      Locals:         0       0       4       0       0       0
  3372 ;;      Temps:          0       0       0       0       0       0
  3373 ;;      Totals:         0       0       8       0       0       0
  3374 ;;Total ram usage:        8 bytes
  3375 ;; Hardware stack levels used:    1
  3376 ;; Hardware stack levels required when called:    6
  3377 ;; This function calls:
  3378 ;;		_command
  3379 ;; This function is called by:
  3380 ;;		_main
  3381 ;;		_LCD_PageClear
  3382 ;;		_LCD_PageSetCursor
  3383 ;; This function uses a non-reentrant model
  3384 ;;
  3385                           
  3386                           
  3387                           ;psect for function _LCD_SetCursor
  3388  0D28                     _LCD_SetCursor:	
  3389                           
  3390                           ;skI2CLCDlib.c: 100: int row_offsets[] = { 0x00, 0x40 } ;
  3391                           
  3392                           ;incstack = 0
  3393                           ; Regs used in _LCD_SetCursor: [wreg+fsr1l+fsr1h+status,2+status,0+pclath+cstack]
  3394  0D28  0020               	movlb	0	; select bank0
  3395  0D29  0866               	movf	LCD_SetCursor@F2852+3,w
  3396  0D2A  0021               	movlb	1	; select bank1
  3397  0D2B  00B2               	movwf	(LCD_SetCursor@row_offsets+3)^(0+128)
  3398  0D2C  0020               	movlb	0	; select bank0
  3399  0D2D  0865               	movf	LCD_SetCursor@F2852+2,w
  3400  0D2E  0021               	movlb	1	; select bank1
  3401  0D2F  00B1               	movwf	(LCD_SetCursor@row_offsets+2)^(0+128)
  3402  0D30  0020               	movlb	0	; select bank0
  3403  0D31  0864               	movf	LCD_SetCursor@F2852+1,w
  3404  0D32  0021               	movlb	1	; select bank1
  3405  0D33  00B0               	movwf	(LCD_SetCursor@row_offsets+1)^(0+128)
  3406  0D34  0020               	movlb	0	; select bank0
  3407  0D35  0863               	movf	LCD_SetCursor@F2852,w
  3408  0D36  0021               	movlb	1	; select bank1
  3409  0D37  00AF               	movwf	LCD_SetCursor@row_offsets^(0+128)
  3410                           
  3411                           ;skI2CLCDlib.c: 102: command(0x80 | (col + row_offsets[row])) ;
  3412  0D38  352D               	lslf	LCD_SetCursor@row^(0+128),w
  3413  0D39  3EAF               	addlw	(low (LCD_SetCursor@row_offsets| 0))& (0+255)
  3414  0D3A  0086               	movwf	6
  3415  0D3B  0187               	clrf	7
  3416  0D3C  0801               	movf	1,w
  3417  0D3D  072B               	addwf	LCD_SetCursor@col^(0+128),w
  3418  0D3E  3880               	iorlw	128
  3419  0D3F  318D  25BA         	fcall	_command
  3420  0D41  0008               	return
  3421  0D42                     __end_of_LCD_SetCursor:	
  3422                           
  3423                           	psect	text7
  3424  0DDE                     __ptext7:	
  3425 ;; *************** function _LCD_Puts *****************
  3426 ;; Defined at:
  3427 ;;		line 130 in file "skI2CLCDlib.c"
  3428 ;; Parameters:    Size  Location     Type
  3429 ;;  s               2    8[BANK1 ] PTR const unsigned char 
  3430 ;;		 -> STR_6(6), STR_5(8), STR_4(9), main@lcd(8), 
  3431 ;;		 -> STR_2(8), STR_1(7), 
  3432 ;; Auto vars:     Size  Location     Type
  3433 ;;  ans             2   11[BANK1 ] int 
  3434 ;; Return value:  Size  Location     Type
  3435 ;;                  1    wreg      void 
  3436 ;; Registers used:
  3437 ;;		wreg, fsr0l, fsr0h, status,2, status,0, pclath, cstack
  3438 ;; Tracked objects:
  3439 ;;		On entry : 0/0
  3440 ;;		On exit  : 0/0
  3441 ;;		Unchanged: 0/0
  3442 ;; Data sizes:     COMMON   BANK0   BANK1   BANK2   BANK3   BANK4
  3443 ;;      Params:         0       0       2       0       0       0
  3444 ;;      Locals:         0       0       2       0       0       0
  3445 ;;      Temps:          0       0       1       0       0       0
  3446 ;;      Totals:         0       0       5       0       0       0
  3447 ;;Total ram usage:        5 bytes
  3448 ;; Hardware stack levels used:    1
  3449 ;; Hardware stack levels required when called:    5
  3450 ;; This function calls:
  3451 ;;		_I2C_Send
  3452 ;;		_I2C_Start
  3453 ;;		_I2C_Stop
  3454 ;;		_Wait27us
  3455 ;; This function is called by:
  3456 ;;		_main
  3457 ;; This function uses a non-reentrant model
  3458 ;;
  3459                           
  3460                           
  3461                           ;psect for function _LCD_Puts
  3462  0DDE                     _LCD_Puts:	
  3463                           
  3464                           ;skI2CLCDlib.c: 132: int ans ;
  3465                           ;skI2CLCDlib.c: 134: ans = I2C_Start(0x3E,0);
  3466                           
  3467                           ;incstack = 0
  3468                           ; Regs used in _LCD_Puts: [wreg-fsr0h+status,2+status,0+pclath+cstack]
  3469  0DDE  303E               	movlw	62
  3470  0DDF  0021               	movlb	1	; select bank1
  3471  0DE0  00A2               	movwf	I2C_Start@adrs^(0+128)
  3472  0DE1  3000               	movlw	0
  3473  0DE2  00A3               	movwf	(I2C_Start@adrs^(0+128)+1)
  3474  0DE3  3000               	movlw	0
  3475  0DE4  00A4               	movwf	I2C_Start@rw^(0+128)
  3476  0DE5  00A5               	movwf	(I2C_Start@rw+1)^(0+128)
  3477  0DE6  318E  2613  318D   	fcall	_I2C_Start
  3478  0DE9  0021               	movlb	1	; select bank1
  3479  0DEA  0823               	movf	(?_I2C_Start+1)^(0+128),w
  3480  0DEB  00AC               	movwf	(LCD_Puts@ans+1)^(0+128)
  3481  0DEC  0822               	movf	?_I2C_Start^(0+128),w
  3482  0DED  00AB               	movwf	LCD_Puts@ans^(0+128)
  3483                           
  3484                           ;skI2CLCDlib.c: 135: if (ans == 0) {
  3485  0DEE  082B               	movf	LCD_Puts@ans^(0+128),w
  3486  0DEF  042C               	iorwf	(LCD_Puts@ans+1)^(0+128),w
  3487  0DF0  1D03               	btfss	3,2
  3488  0DF1  2E10               	goto	l2292
  3489                           
  3490                           ;skI2CLCDlib.c: 136: I2C_Send(0b01000000) ;
  3491  0DF2  3040               	movlw	64
  3492  0DF3  318D  2597  318D   	fcall	_I2C_Send
  3493  0DF6                     l2290:	
  3494                           ;skI2CLCDlib.c: 137: while(*s) {
  3495                           
  3496  0DF6  0021               	movlb	1	; select bank1
  3497  0DF7  0828               	movf	LCD_Puts@s^(0+128),w
  3498  0DF8  0084               	movwf	4
  3499  0DF9  0829               	movf	(LCD_Puts@s+1)^(0+128),w
  3500  0DFA  0085               	movwf	5
  3501  0DFB  0012               	moviw fsr0++
  3502  0DFC  1903               	btfsc	3,2
  3503  0DFD  2E10               	goto	l2292
  3504                           
  3505                           ;skI2CLCDlib.c: 138: I2C_Send(*s++) ;
  3506  0DFE  0021               	movlb	1	; select bank1
  3507  0DFF  0828               	movf	LCD_Puts@s^(0+128),w
  3508  0E00  0084               	movwf	4
  3509  0E01  0829               	movf	(LCD_Puts@s+1)^(0+128),w
  3510  0E02  0085               	movwf	5
  3511  0E03  0800               	movf	0,w	;code access
  3512  0E04  318D  2597  318D   	fcall	_I2C_Send
  3513  0E07  3001               	movlw	1
  3514  0E08  0021               	movlb	1	; select bank1
  3515  0E09  07A8               	addwf	LCD_Puts@s^(0+128),f
  3516  0E0A  3000               	movlw	0
  3517  0E0B  3DA9               	addwfc	(LCD_Puts@s+1)^(0+128),f
  3518                           
  3519                           ;skI2CLCDlib.c: 139: Wait27us() ;
  3520  0E0C  318C  24B9  318D   	fcall	_Wait27us
  3521  0E0F  2DF6               	goto	l2290
  3522  0E10                     l2292:	
  3523                           
  3524                           ;skI2CLCDlib.c: 140: }
  3525                           ;skI2CLCDlib.c: 141: }
  3526                           ;skI2CLCDlib.c: 142: I2C_Stop() ;
  3527  0E10  318C  24C7         	fcall	_I2C_Stop
  3528  0E12  0008               	return
  3529  0E13                     __end_of_LCD_Puts:	
  3530                           
  3531                           	psect	text8
  3532  0EF7                     __ptext8:	
  3533 ;; *************** function _LCD_Init *****************
  3534 ;; Defined at:
  3535 ;;		line 331 in file "skI2CLCDlib.c"
  3536 ;; Parameters:    Size  Location     Type
  3537 ;;  icon            2   12[BANK1 ] int 
  3538 ;;  contrast        2   14[BANK1 ] int 
  3539 ;;  bon             2   16[BANK1 ] int 
  3540 ;;  colsu           2   18[BANK1 ] int 
  3541 ;; Auto vars:     Size  Location     Type
  3542 ;;  d               2   25[BANK1 ] unsigned int 
  3543 ;; Return value:  Size  Location     Type
  3544 ;;                  1    wreg      void 
  3545 ;; Registers used:
  3546 ;;		wreg, status,2, status,0, pclath, cstack
  3547 ;; Tracked objects:
  3548 ;;		On entry : 0/0
  3549 ;;		On exit  : 0/0
  3550 ;;		Unchanged: 0/0
  3551 ;; Data sizes:     COMMON   BANK0   BANK1   BANK2   BANK3   BANK4
  3552 ;;      Params:         0       0       8       0       0       0
  3553 ;;      Locals:         0       0       2       0       0       0
  3554 ;;      Temps:          0       0       5       0       0       0
  3555 ;;      Totals:         0       0      15       0       0       0
  3556 ;;Total ram usage:       15 bytes
  3557 ;; Hardware stack levels used:    1
  3558 ;; Hardware stack levels required when called:    7
  3559 ;; This function calls:
  3560 ;;		_LCD_Clear
  3561 ;;		_Wait10ms
  3562 ;;		_command
  3563 ;; This function is called by:
  3564 ;;		_main
  3565 ;; This function uses a non-reentrant model
  3566 ;;
  3567                           
  3568                           
  3569                           ;psect for function _LCD_Init
  3570  0EF7                     _LCD_Init:	
  3571                           
  3572                           ;skI2CLCDlib.c: 333: unsigned int d ;
  3573                           ;skI2CLCDlib.c: 335: LCD_ColumnSu = colsu ;
  3574                           
  3575                           ;incstack = 0
  3576                           ; Regs used in _LCD_Init: [wreg+status,2+status,0+pclath+cstack]
  3577  0EF7  0021               	movlb	1	; select bank1
  3578  0EF8  0833               	movf	(LCD_Init@colsu+1)^(0+128),w
  3579  0EF9  00FD               	movwf	_LCD_ColumnSu+1
  3580  0EFA  0832               	movf	LCD_Init@colsu^(0+128),w
  3581  0EFB  00FC               	movwf	_LCD_ColumnSu
  3582                           
  3583                           ;skI2CLCDlib.c: 336: Wait10ms(4) ;
  3584  0EFC  3004               	movlw	4
  3585  0EFD  00A0               	movwf	Wait10ms@num^(0+128)
  3586  0EFE  3000               	movlw	0
  3587  0EFF  00A1               	movwf	(Wait10ms@num^(0+128)+1)
  3588  0F00  318D  2501  318E   	fcall	_Wait10ms
  3589                           
  3590                           ;skI2CLCDlib.c: 337: FuncSet_DT = 0x38 ;
  3591  0F03  3038               	movlw	56
  3592  0F04  0021               	movlb	1	; select bank1
  3593  0F05  00EB               	movwf	_FuncSet_DT^(0+128)
  3594  0F06  3000               	movlw	0
  3595  0F07  00EC               	movwf	(_FuncSet_DT^(0+128)+1)
  3596                           
  3597                           ;skI2CLCDlib.c: 338: command(FuncSet_DT);
  3598  0F08  086B               	movf	_FuncSet_DT^(0+128),w
  3599  0F09  318D  25BA  318E   	fcall	_command
  3600                           
  3601                           ;skI2CLCDlib.c: 339: command(0x39) ;
  3602  0F0C  3039               	movlw	57
  3603  0F0D  318D  25BA  318E   	fcall	_command
  3604                           
  3605                           ;skI2CLCDlib.c: 340: command(0x14) ;
  3606  0F10  3014               	movlw	20
  3607  0F11  318D  25BA  318E   	fcall	_command
  3608                           
  3609                           ;skI2CLCDlib.c: 341: d = 0x70 | (contrast & 0x0F) ;
  3610  0F14  300F               	movlw	15
  3611  0F15  0021               	movlb	1	; select bank1
  3612  0F16  052E               	andwf	LCD_Init@contrast^(0+128),w
  3613  0F17  00B4               	movwf	??_LCD_Init^(0+128)
  3614  0F18  3000               	movlw	0
  3615  0F19  052F               	andwf	(LCD_Init@contrast+1)^(0+128),w
  3616  0F1A  00B5               	movwf	(??_LCD_Init+1)^(0+128)
  3617  0F1B  3070               	movlw	112
  3618  0F1C  0434               	iorwf	??_LCD_Init^(0+128),w
  3619  0F1D  00B9               	movwf	LCD_Init@d^(0+128)
  3620  0F1E  3000               	movlw	0
  3621  0F1F  0435               	iorwf	(??_LCD_Init+1)^(0+128),w
  3622  0F20  00BA               	movwf	(LCD_Init@d+1)^(0+128)
  3623                           
  3624                           ;skI2CLCDlib.c: 342: command(d) ;
  3625  0F21  0839               	movf	LCD_Init@d^(0+128),w
  3626  0F22  318D  25BA  318E   	fcall	_command
  3627                           
  3628                           ;skI2CLCDlib.c: 343: d = 0x50 | ((contrast & 0x30) >> 4) ;
  3629  0F25  0021               	movlb	1	; select bank1
  3630  0F26  082F               	movf	(LCD_Init@contrast+1)^(0+128),w
  3631  0F27  00B5               	movwf	(??_LCD_Init^(0+128)+1)
  3632  0F28  082E               	movf	LCD_Init@contrast^(0+128),w
  3633  0F29  00B4               	movwf	??_LCD_Init^(0+128)
  3634  0F2A  3004               	movlw	4
  3635  0F2B  00B6               	movwf	(??_LCD_Init+2)^(0+128)
  3636  0F2C                     u2335:	
  3637  0F2C  0D35               	rlf	(??_LCD_Init^(0+128)+1),w
  3638  0F2D  0CB5               	rrf	(??_LCD_Init^(0+128)+1),f
  3639  0F2E  0CB4               	rrf	??_LCD_Init^(0+128),f
  3640  0F2F  0BB6               	decfsz	(??_LCD_Init+2)^(0+128),f
  3641  0F30  2F2C               	goto	u2335
  3642  0F31  3003               	movlw	3
  3643  0F32  0534               	andwf	??_LCD_Init^(0+128),w
  3644  0F33  00B7               	movwf	(??_LCD_Init+3)^(0+128)
  3645  0F34  3000               	movlw	0
  3646  0F35  0535               	andwf	(??_LCD_Init+1)^(0+128),w
  3647  0F36  00B8               	movwf	(??_LCD_Init+4)^(0+128)
  3648  0F37  3050               	movlw	80
  3649  0F38  0437               	iorwf	(??_LCD_Init+3)^(0+128),w
  3650  0F39  00B9               	movwf	LCD_Init@d^(0+128)
  3651  0F3A  3000               	movlw	0
  3652  0F3B  0438               	iorwf	(??_LCD_Init+4)^(0+128),w
  3653  0F3C  00BA               	movwf	(LCD_Init@d+1)^(0+128)
  3654                           
  3655                           ;skI2CLCDlib.c: 344: if (icon == 1) d = d | 0x08 ;
  3656  0F3D  032C               	decf	LCD_Init@icon^(0+128),w
  3657  0F3E  042D               	iorwf	(LCD_Init@icon+1)^(0+128),w
  3658  0F3F  1D03               	btfss	3,2
  3659  0F40  2F47               	goto	l2310
  3660  0F41  3008               	movlw	8
  3661  0F42  0439               	iorwf	LCD_Init@d^(0+128),w
  3662  0F43  00B9               	movwf	LCD_Init@d^(0+128)
  3663  0F44  3000               	movlw	0
  3664  0F45  043A               	iorwf	(LCD_Init@d+1)^(0+128),w
  3665  0F46  00BA               	movwf	(LCD_Init@d+1)^(0+128)
  3666  0F47                     l2310:	
  3667                           
  3668                           ;skI2CLCDlib.c: 345: if (bon == 1) d = d | 0x04 ;
  3669  0F47  0330               	decf	LCD_Init@bon^(0+128),w
  3670  0F48  0431               	iorwf	(LCD_Init@bon+1)^(0+128),w
  3671  0F49  1D03               	btfss	3,2
  3672  0F4A  2F51               	goto	l100
  3673  0F4B  3004               	movlw	4
  3674  0F4C  0439               	iorwf	LCD_Init@d^(0+128),w
  3675  0F4D  00B9               	movwf	LCD_Init@d^(0+128)
  3676  0F4E  3000               	movlw	0
  3677  0F4F  043A               	iorwf	(LCD_Init@d+1)^(0+128),w
  3678  0F50  00BA               	movwf	(LCD_Init@d+1)^(0+128)
  3679  0F51                     l100:	
  3680                           
  3681                           ;skI2CLCDlib.c: 346: ContSet_DT = d ;
  3682  0F51  083A               	movf	(LCD_Init@d+1)^(0+128),w
  3683  0F52  0020               	movlb	0	; select bank0
  3684  0F53  00DA               	movwf	_ContSet_DT+1
  3685  0F54  0021               	movlb	1	; select bank1
  3686  0F55  0839               	movf	LCD_Init@d^(0+128),w
  3687  0F56  0020               	movlb	0	; select bank0
  3688  0F57  00D9               	movwf	_ContSet_DT
  3689                           
  3690                           ;skI2CLCDlib.c: 347: command(d) ;
  3691  0F58  0021               	movlb	1	; select bank1
  3692  0F59  0839               	movf	LCD_Init@d^(0+128),w
  3693  0F5A  318D  25BA  318E   	fcall	_command
  3694                           
  3695                           ;skI2CLCDlib.c: 348: command(0x6C) ;
  3696  0F5D  306C               	movlw	108
  3697  0F5E  318D  25BA  318E   	fcall	_command
  3698                           
  3699                           ;skI2CLCDlib.c: 349: Wait10ms(20) ;
  3700  0F61  3014               	movlw	20
  3701  0F62  0021               	movlb	1	; select bank1
  3702  0F63  00A0               	movwf	Wait10ms@num^(0+128)
  3703  0F64  3000               	movlw	0
  3704  0F65  00A1               	movwf	(Wait10ms@num^(0+128)+1)
  3705  0F66  318D  2501  318E   	fcall	_Wait10ms
  3706                           
  3707                           ;skI2CLCDlib.c: 350: command(FuncSet_DT);
  3708  0F69  0021               	movlb	1	; select bank1
  3709  0F6A  086B               	movf	_FuncSet_DT^(0+128),w
  3710  0F6B  318D  25BA  318E   	fcall	_command
  3711                           
  3712                           ;skI2CLCDlib.c: 351: command(0x0C) ;
  3713  0F6E  300C               	movlw	12
  3714  0F6F  318D  25BA  318E   	fcall	_command
  3715                           
  3716                           ;skI2CLCDlib.c: 352: command(0x06) ;
  3717  0F72  3006               	movlw	6
  3718  0F73  318D  25BA  318E   	fcall	_command
  3719                           
  3720                           ;skI2CLCDlib.c: 353: LCD_Clear() ;
  3721  0F76  318D  2579         	fcall	_LCD_Clear
  3722  0F78  0008               	return
  3723  0F79                     __end_of_LCD_Init:	
  3724                           
  3725                           	psect	text9
  3726  0D01                     __ptext9:	
  3727 ;; *************** function _Wait10ms *****************
  3728 ;; Defined at:
  3729 ;;		line 50 in file "skI2CLCDlib.c"
  3730 ;; Parameters:    Size  Location     Type
  3731 ;;  num             2    0[BANK1 ] unsigned int 
  3732 ;; Auto vars:     Size  Location     Type
  3733 ;;		None
  3734 ;; Return value:  Size  Location     Type
  3735 ;;                  1    wreg      void 
  3736 ;; Registers used:
  3737 ;;		wreg, status,2, status,0
  3738 ;; Tracked objects:
  3739 ;;		On entry : 0/0
  3740 ;;		On exit  : 0/0
  3741 ;;		Unchanged: 0/0
  3742 ;; Data sizes:     COMMON   BANK0   BANK1   BANK2   BANK3   BANK4
  3743 ;;      Params:         0       0       2       0       0       0
  3744 ;;      Locals:         0       0       0       0       0       0
  3745 ;;      Temps:          0       0       1       0       0       0
  3746 ;;      Totals:         0       0       3       0       0       0
  3747 ;;Total ram usage:        3 bytes
  3748 ;; Hardware stack levels used:    1
  3749 ;; Hardware stack levels required when called:    3
  3750 ;; This function calls:
  3751 ;;		Nothing
  3752 ;; This function is called by:
  3753 ;;		_LCD_Init
  3754 ;; This function uses a non-reentrant model
  3755 ;;
  3756                           
  3757                           
  3758                           ;psect for function _Wait10ms
  3759  0D01                     _Wait10ms:	
  3760  0D01                     l19:	
  3761                           ;incstack = 0
  3762                           ; Regs used in _Wait10ms: [wreg+status,2+status,0]
  3763                           ;skI2CLCDlib.c: 52: do {
  3764                           
  3765                           
  3766                           ;skI2CLCDlib.c: 53: _delay((unsigned long)((10)*(8000000/4000.0))) ;
  3767  0D01  301A               	movlw	26
  3768  0D02  0021               	movlb	1	; select bank1
  3769  0D03  00A2               	movwf	??_Wait10ms^(0+128)
  3770  0D04  30F8               	movlw	248
  3771  0D05                     u3917:	
  3772  0D05  0B89               	decfsz	9,f
  3773  0D06  2D05               	goto	u3917
  3774  0D07  0BA2               	decfsz	??_Wait10ms^(0+128),f
  3775  0D08  2D05               	goto	u3917
  3776  0D09  0000               	nop
  3777                           
  3778                           ;skI2CLCDlib.c: 54: } while(--num != 0);
  3779  0D0A  3001               	movlw	1
  3780  0D0B  0021               	movlb	1	; select bank1
  3781  0D0C  02A0               	subwf	Wait10ms@num^(0+128),f
  3782  0D0D  3000               	movlw	0
  3783  0D0E  3BA1               	subwfb	(Wait10ms@num+1)^(0+128),f
  3784  0D0F  0820               	movf	Wait10ms@num^(0+128),w
  3785  0D10  0421               	iorwf	(Wait10ms@num+1)^(0+128),w
  3786  0D11  1903               	btfsc	3,2
  3787  0D12  0008               	return
  3788  0D13  2D01               	goto	l19
  3789  0D14                     __end_of_Wait10ms:	
  3790                           
  3791                           	psect	text10
  3792  0D79                     __ptext10:	
  3793 ;; *************** function _LCD_Clear *****************
  3794 ;; Defined at:
  3795 ;;		line 81 in file "skI2CLCDlib.c"
  3796 ;; Parameters:    Size  Location     Type
  3797 ;;		None
  3798 ;; Auto vars:     Size  Location     Type
  3799 ;;		None
  3800 ;; Return value:  Size  Location     Type
  3801 ;;                  1    wreg      void 
  3802 ;; Registers used:
  3803 ;;		wreg, status,2, status,0, pclath, cstack
  3804 ;; Tracked objects:
  3805 ;;		On entry : 0/0
  3806 ;;		On exit  : 0/0
  3807 ;;		Unchanged: 0/0
  3808 ;; Data sizes:     COMMON   BANK0   BANK1   BANK2   BANK3   BANK4
  3809 ;;      Params:         0       0       0       0       0       0
  3810 ;;      Locals:         0       0       0       0       0       0
  3811 ;;      Temps:          0       0       1       0       0       0
  3812 ;;      Totals:         0       0       1       0       0       0
  3813 ;;Total ram usage:        1 bytes
  3814 ;; Hardware stack levels used:    1
  3815 ;; Hardware stack levels required when called:    6
  3816 ;; This function calls:
  3817 ;;		_command
  3818 ;; This function is called by:
  3819 ;;		_LCD_Init
  3820 ;;		_main
  3821 ;; This function uses a non-reentrant model
  3822 ;;
  3823                           
  3824                           
  3825                           ;psect for function _LCD_Clear
  3826  0D79                     _LCD_Clear:	
  3827                           
  3828                           ;skI2CLCDlib.c: 83: command(0x01) ;
  3829                           
  3830                           ;incstack = 0
  3831                           ; Regs used in _LCD_Clear: [wreg+status,2+status,0+pclath+cstack]
  3832  0D79  3001               	movlw	1
  3833  0D7A  318D  25BA  318D   	fcall	_command
  3834                           
  3835                           ;skI2CLCDlib.c: 84: _delay((unsigned long)((1100)*(8000000/4000000.0))) ;
  3836  0D7D  3003               	movlw	3
  3837  0D7E  0021               	movlb	1	; select bank1
  3838  0D7F  00AB               	movwf	??_LCD_Clear^(0+128)
  3839  0D80  30DA               	movlw	218
  3840  0D81                     u3927:	
  3841  0D81  0B89               	decfsz	9,f
  3842  0D82  2D81               	goto	u3927
  3843  0D83  0BAB               	decfsz	??_LCD_Clear^(0+128),f
  3844  0D84  2D81               	goto	u3927
  3845  0D85  0000               	nop
  3846                           
  3847                           ;skI2CLCDlib.c: 85: command(0x02) ;
  3848  0D86  3002               	movlw	2
  3849  0D87  318D  25BA  318D   	fcall	_command
  3850                           
  3851                           ;skI2CLCDlib.c: 86: _delay((unsigned long)((1100)*(8000000/4000000.0))) ;
  3852  0D8A  3003               	movlw	3
  3853  0D8B  0021               	movlb	1	; select bank1
  3854  0D8C  00AB               	movwf	??_LCD_Clear^(0+128)
  3855  0D8D  30DA               	movlw	218
  3856  0D8E                     u3937:	
  3857  0D8E  0B89               	decfsz	9,f
  3858  0D8F  2D8E               	goto	u3937
  3859  0D90  0BAB               	decfsz	??_LCD_Clear^(0+128),f
  3860  0D91  2D8E               	goto	u3937
  3861  0D92  0000               	nop
  3862                           
  3863                           ;skI2CLCDlib.c: 87: LCD_NowPage = 0 ;
  3864  0D93  0021               	movlb	1	; select bank1
  3865  0D94  01ED               	clrf	_LCD_NowPage^(0+128)
  3866  0D95  01EE               	clrf	(_LCD_NowPage+1)^(0+128)
  3867  0D96  0008               	return
  3868  0D97                     __end_of_LCD_Clear:	
  3869                           
  3870                           	psect	text11
  3871  0DBA                     __ptext11:	
  3872 ;; *************** function _command *****************
  3873 ;; Defined at:
  3874 ;;		line 62 in file "skI2CLCDlib.c"
  3875 ;; Parameters:    Size  Location     Type
  3876 ;;  c               1    wreg     unsigned char 
  3877 ;; Auto vars:     Size  Location     Type
  3878 ;;  c               1   10[BANK1 ] unsigned char 
  3879 ;;  ans             2    8[BANK1 ] int 
  3880 ;; Return value:  Size  Location     Type
  3881 ;;                  1    wreg      void 
  3882 ;; Registers used:
  3883 ;;		wreg, status,2, status,0, pclath, cstack
  3884 ;; Tracked objects:
  3885 ;;		On entry : 0/0
  3886 ;;		On exit  : 0/0
  3887 ;;		Unchanged: 0/0
  3888 ;; Data sizes:     COMMON   BANK0   BANK1   BANK2   BANK3   BANK4
  3889 ;;      Params:         0       0       0       0       0       0
  3890 ;;      Locals:         0       0       3       0       0       0
  3891 ;;      Temps:          0       0       0       0       0       0
  3892 ;;      Totals:         0       0       3       0       0       0
  3893 ;;Total ram usage:        3 bytes
  3894 ;; Hardware stack levels used:    1
  3895 ;; Hardware stack levels required when called:    5
  3896 ;; This function calls:
  3897 ;;		_I2C_Send
  3898 ;;		_I2C_Start
  3899 ;;		_I2C_Stop
  3900 ;;		_Wait27us
  3901 ;; This function is called by:
  3902 ;;		_LCD_Clear
  3903 ;;		_LCD_SetCursor
  3904 ;;		_LCD_Init
  3905 ;;		_LCD_IconClear
  3906 ;;		_LCD_IconOnOff
  3907 ;;		_LCD_PageSet
  3908 ;;		_LCD_Contrast
  3909 ;; This function uses a non-reentrant model
  3910 ;;
  3911                           
  3912                           
  3913                           ;psect for function _command
  3914  0DBA                     _command:	
  3915                           
  3916                           ;incstack = 0
  3917                           ; Regs used in _command: [wreg+status,2+status,0+pclath+cstack]
  3918                           ;command@c stored from wreg
  3919  0DBA  0021               	movlb	1	; select bank1
  3920  0DBB  00AA               	movwf	command@c^(0+128)
  3921                           
  3922                           ;skI2CLCDlib.c: 64: int ans ;
  3923                           ;skI2CLCDlib.c: 66: ans = I2C_Start(0x3E,0);
  3924  0DBC  303E               	movlw	62
  3925  0DBD  00A2               	movwf	I2C_Start@adrs^(0+128)
  3926  0DBE  3000               	movlw	0
  3927  0DBF  00A3               	movwf	(I2C_Start@adrs^(0+128)+1)
  3928  0DC0  3000               	movlw	0
  3929  0DC1  00A4               	movwf	I2C_Start@rw^(0+128)
  3930  0DC2  00A5               	movwf	(I2C_Start@rw+1)^(0+128)
  3931  0DC3  318E  2613  318D   	fcall	_I2C_Start
  3932  0DC6  0021               	movlb	1	; select bank1
  3933  0DC7  0823               	movf	(?_I2C_Start+1)^(0+128),w
  3934  0DC8  00A9               	movwf	(command@ans+1)^(0+128)
  3935  0DC9  0822               	movf	?_I2C_Start^(0+128),w
  3936  0DCA  00A8               	movwf	command@ans^(0+128)
  3937                           
  3938                           ;skI2CLCDlib.c: 67: if (ans == 0) {
  3939  0DCB  0828               	movf	command@ans^(0+128),w
  3940  0DCC  0429               	iorwf	(command@ans+1)^(0+128),w
  3941  0DCD  1D03               	btfss	3,2
  3942  0DCE  2DD8               	goto	l27
  3943                           
  3944                           ;skI2CLCDlib.c: 69: I2C_Send(0b10000000) ;
  3945  0DCF  3080               	movlw	128
  3946  0DD0  318D  2597  318D   	fcall	_I2C_Send
  3947                           
  3948                           ;skI2CLCDlib.c: 70: I2C_Send(c) ;
  3949  0DD3  0021               	movlb	1	; select bank1
  3950  0DD4  082A               	movf	command@c^(0+128),w
  3951  0DD5  318D  2597  318D   	fcall	_I2C_Send
  3952  0DD8                     l27:	
  3953                           
  3954                           ;skI2CLCDlib.c: 71: }
  3955                           ;skI2CLCDlib.c: 72: I2C_Stop() ;
  3956  0DD8  318C  24C7  318D   	fcall	_I2C_Stop
  3957                           
  3958                           ;skI2CLCDlib.c: 73: Wait27us() ;
  3959  0DDB  318C  24B9         	fcall	_Wait27us
  3960  0DDD  0008               	return
  3961  0DDE                     __end_of_command:	
  3962                           
  3963                           	psect	text12
  3964  0CB9                     __ptext12:	
  3965 ;; *************** function _Wait27us *****************
  3966 ;; Defined at:
  3967 ;;		line 57 in file "skI2CLCDlib.c"
  3968 ;; Parameters:    Size  Location     Type
  3969 ;;		None
  3970 ;; Auto vars:     Size  Location     Type
  3971 ;;		None
  3972 ;; Return value:  Size  Location     Type
  3973 ;;                  1    wreg      void 
  3974 ;; Registers used:
  3975 ;;		wreg
  3976 ;; Tracked objects:
  3977 ;;		On entry : 0/0
  3978 ;;		On exit  : 0/0
  3979 ;;		Unchanged: 0/0
  3980 ;; Data sizes:     COMMON   BANK0   BANK1   BANK2   BANK3   BANK4
  3981 ;;      Params:         0       0       0       0       0       0
  3982 ;;      Locals:         0       0       0       0       0       0
  3983 ;;      Temps:          0       0       0       0       0       0
  3984 ;;      Totals:         0       0       0       0       0       0
  3985 ;;Total ram usage:        0 bytes
  3986 ;; Hardware stack levels used:    1
  3987 ;; Hardware stack levels required when called:    3
  3988 ;; This function calls:
  3989 ;;		Nothing
  3990 ;; This function is called by:
  3991 ;;		_command
  3992 ;;		_LCD_Puts
  3993 ;;		_LCD_Putc
  3994 ;;		_LCD_CreateChar
  3995 ;;		_LCD_IconClear
  3996 ;;		_LCD_IconOnOff
  3997 ;; This function uses a non-reentrant model
  3998 ;;
  3999                           
  4000                           
  4001                           ;psect for function _Wait27us
  4002  0CB9                     _Wait27us:	
  4003                           
  4004                           ;skI2CLCDlib.c: 59: _delay((unsigned long)((26)*(8000000/4000000.0))) ;
  4005                           
  4006                           ;incstack = 0
  4007                           ; Regs used in _Wait27us: [wreg]
  4008  0CB9  3011               	movlw	17
  4009  0CBA                     u3947:	
  4010  0CBA  0B89               	decfsz	9,f
  4011  0CBB  2CBA               	goto	u3947
  4012  0CBC  0000               	nop
  4013  0CBD  0008               	return
  4014  0CBE                     __end_of_Wait27us:	
  4015                           
  4016                           	psect	text13
  4017  0CC7                     __ptext13:	
  4018 ;; *************** function _I2C_Stop *****************
  4019 ;; Defined at:
  4020 ;;		line 152 in file "skI2Clib.c"
  4021 ;; Parameters:    Size  Location     Type
  4022 ;;		None
  4023 ;; Auto vars:     Size  Location     Type
  4024 ;;		None
  4025 ;; Return value:  Size  Location     Type
  4026 ;;                  2    8[None  ] int 
  4027 ;; Registers used:
  4028 ;;		wreg, status,2, status,0, pclath, cstack
  4029 ;; Tracked objects:
  4030 ;;		On entry : 0/0
  4031 ;;		On exit  : 0/0
  4032 ;;		Unchanged: 0/0
  4033 ;; Data sizes:     COMMON   BANK0   BANK1   BANK2   BANK3   BANK4
  4034 ;;      Params:         0       0       0       0       0       0
  4035 ;;      Locals:         0       0       0       0       0       0
  4036 ;;      Temps:          0       0       0       0       0       0
  4037 ;;      Totals:         0       0       0       0       0       0
  4038 ;;Total ram usage:        0 bytes
  4039 ;; Hardware stack levels used:    1
  4040 ;; Hardware stack levels required when called:    4
  4041 ;; This function calls:
  4042 ;;		_I2C_IdleCheck
  4043 ;; This function is called by:
  4044 ;;		_command
  4045 ;;		_LCD_Puts
  4046 ;;		_LCD_Putc
  4047 ;;		_LCD_CreateChar
  4048 ;;		_LCD_IconClear
  4049 ;;		_LCD_IconOnOff
  4050 ;;		_I2C_SlaveRead
  4051 ;;		_I2C_SlaveWrite
  4052 ;; This function uses a non-reentrant model
  4053 ;;
  4054                           
  4055                           
  4056                           ;psect for function _I2C_Stop
  4057  0CC7                     _I2C_Stop:	
  4058                           
  4059                           ;skI2Clib.c: 154: CollisionCheck = 0 ;
  4060                           
  4061                           ;incstack = 0
  4062                           ; Regs used in _I2C_Stop: [wreg+status,2+status,0+pclath+cstack]
  4063  0CC7  0021               	movlb	1	; select bank1
  4064  0CC8  01E9               	clrf	_CollisionCheck^(0+128)
  4065  0CC9  01EA               	clrf	(_CollisionCheck+1)^(0+128)
  4066                           
  4067                           ;skI2Clib.c: 156: I2C_IdleCheck(0x5) ;
  4068  0CCA  3005               	movlw	5
  4069  0CCB  318C  24D0         	fcall	_I2C_IdleCheck
  4070                           
  4071                           ;skI2Clib.c: 157: SSP1CON2bits.PEN = 1 ;
  4072  0CCD  0024               	movlb	4	; select bank4
  4073  0CCE  1516               	bsf	22,2	;volatile
  4074                           
  4075                           ;skI2Clib.c: 159: else return 0 ;
  4076                           ;	Return value of _I2C_Stop is never used
  4077                           
  4078                           ;	Return value of _I2C_Stop is never used
  4079  0CCF  0008               	return
  4080  0CD0                     __end_of_I2C_Stop:	
  4081                           
  4082                           	psect	text14
  4083  0E13                     __ptext14:	
  4084 ;; *************** function _I2C_Start *****************
  4085 ;; Defined at:
  4086 ;;		line 106 in file "skI2Clib.c"
  4087 ;; Parameters:    Size  Location     Type
  4088 ;;  adrs            2    2[BANK1 ] int 
  4089 ;;  rw              2    4[BANK1 ] int 
  4090 ;; Auto vars:     Size  Location     Type
  4091 ;;		None
  4092 ;; Return value:  Size  Location     Type
  4093 ;;                  2    2[BANK1 ] int 
  4094 ;; Registers used:
  4095 ;;		wreg, status,2, status,0, pclath, cstack
  4096 ;; Tracked objects:
  4097 ;;		On entry : 0/0
  4098 ;;		On exit  : 0/0
  4099 ;;		Unchanged: 0/0
  4100 ;; Data sizes:     COMMON   BANK0   BANK1   BANK2   BANK3   BANK4
  4101 ;;      Params:         0       0       4       0       0       0
  4102 ;;      Locals:         0       0       0       0       0       0
  4103 ;;      Temps:          0       0       2       0       0       0
  4104 ;;      Totals:         0       0       6       0       0       0
  4105 ;;Total ram usage:        6 bytes
  4106 ;; Hardware stack levels used:    1
  4107 ;; Hardware stack levels required when called:    4
  4108 ;; This function calls:
  4109 ;;		_I2C_IdleCheck
  4110 ;; This function is called by:
  4111 ;;		_command
  4112 ;;		_LCD_Puts
  4113 ;;		_LCD_Putc
  4114 ;;		_LCD_CreateChar
  4115 ;;		_LCD_IconClear
  4116 ;;		_LCD_IconOnOff
  4117 ;;		_I2C_SlaveRead
  4118 ;;		_I2C_SlaveWrite
  4119 ;; This function uses a non-reentrant model
  4120 ;;
  4121                           
  4122                           
  4123                           ;psect for function _I2C_Start
  4124  0E13                     _I2C_Start:	
  4125                           
  4126                           ;skI2Clib.c: 108: CollisionCheck = 0 ;
  4127                           
  4128                           ;incstack = 0
  4129                           ; Regs used in _I2C_Start: [wreg+status,2+status,0+pclath+cstack]
  4130  0E13  0021               	movlb	1	; select bank1
  4131  0E14  01E9               	clrf	_CollisionCheck^(0+128)
  4132  0E15  01EA               	clrf	(_CollisionCheck+1)^(0+128)
  4133                           
  4134                           ;skI2Clib.c: 110: I2C_IdleCheck(0x5) ;
  4135  0E16  3005               	movlw	5
  4136  0E17  318C  24D0  318E   	fcall	_I2C_IdleCheck
  4137                           
  4138                           ;skI2Clib.c: 111: SSP1CON2bits.SEN = 1 ;
  4139  0E1A  0024               	movlb	4	; select bank4
  4140  0E1B  1416               	bsf	22,0	;volatile
  4141                           
  4142                           ;skI2Clib.c: 113: I2C_IdleCheck(0x5) ;
  4143  0E1C  3005               	movlw	5
  4144  0E1D  318C  24D0  318E   	fcall	_I2C_IdleCheck
  4145                           
  4146                           ;skI2Clib.c: 114: if (CollisionCheck == 1) return -1 ;
  4147  0E20  0021               	movlb	1	; select bank1
  4148  0E21  0369               	decf	_CollisionCheck^(0+128),w
  4149  0E22  046A               	iorwf	(_CollisionCheck+1)^(0+128),w
  4150  0E23  1D03               	btfss	3,2
  4151  0E24  2E2A               	goto	l2100
  4152  0E25  30FF               	movlw	255
  4153  0E26  00A2               	movwf	?_I2C_Start^(0+128)
  4154  0E27  30FF               	movlw	255
  4155  0E28  00A3               	movwf	(?_I2C_Start^(0+128)+1)
  4156  0E29  0008               	return
  4157  0E2A                     l2100:	
  4158                           
  4159                           ;skI2Clib.c: 115: AckCheck = 1 ;
  4160  0E2A  3001               	movlw	1
  4161  0E2B  0020               	movlb	0	; select bank0
  4162  0E2C  00D7               	movwf	_AckCheck
  4163  0E2D  3000               	movlw	0
  4164  0E2E  00D8               	movwf	_AckCheck+1
  4165                           
  4166                           ;skI2Clib.c: 116: SSP1BUF = (char)((adrs<<1)+rw) ;
  4167  0E2F  0021               	movlb	1	; select bank1
  4168  0E30  3522               	lslf	I2C_Start@adrs^(0+128),w
  4169  0E31  0724               	addwf	I2C_Start@rw^(0+128),w
  4170  0E32  0024               	movlb	4	; select bank4
  4171  0E33  0091               	movwf	17	;volatile
  4172  0E34                     l2104:	
  4173                           ;skI2Clib.c: 117: while (AckCheck) ;
  4174                           
  4175  0E34  0020               	movlb	0	; select bank0
  4176  0E35  0857               	movf	_AckCheck,w
  4177  0E36  0458               	iorwf	_AckCheck+1,w
  4178  0E37  1D03               	btfss	3,2
  4179  0E38  2E34               	goto	l2104
  4180                           
  4181                           ;skI2Clib.c: 118: if (CollisionCheck == 1) return -1 ;
  4182  0E39  0021               	movlb	1	; select bank1
  4183  0E3A  0369               	decf	_CollisionCheck^(0+128),w
  4184  0E3B  046A               	iorwf	(_CollisionCheck+1)^(0+128),w
  4185  0E3C  1D03               	btfss	3,2
  4186  0E3D  2E43               	goto	l2112
  4187  0E3E  30FF               	movlw	255
  4188  0E3F  00A2               	movwf	?_I2C_Start^(0+128)
  4189  0E40  30FF               	movlw	255
  4190  0E41  00A3               	movwf	(?_I2C_Start^(0+128)+1)
  4191  0E42  0008               	return
  4192  0E43                     l2112:	
  4193                           
  4194                           ;skI2Clib.c: 119: return SSP1CON2bits.ACKSTAT ;
  4195  0E43  0024               	movlb	4	; select bank4
  4196  0E44  0E16               	swapf	22,w	;volatile
  4197  0E45  0C89               	rrf	9,f
  4198  0E46  0C89               	rrf	9,f
  4199  0E47  3901               	andlw	1
  4200  0E48  0021               	movlb	1	; select bank1
  4201  0E49  00A6               	movwf	??_I2C_Start^(0+128)
  4202  0E4A  01A7               	clrf	(??_I2C_Start^(0+128)+1)
  4203  0E4B  0826               	movf	??_I2C_Start^(0+128),w
  4204  0E4C  00A2               	movwf	?_I2C_Start^(0+128)
  4205  0E4D  0827               	movf	(??_I2C_Start+1)^(0+128),w
  4206  0E4E  00A3               	movwf	(?_I2C_Start+1)^(0+128)
  4207  0E4F  0008               	return
  4208  0E50                     __end_of_I2C_Start:	
  4209                           
  4210                           	psect	text15
  4211  0D97                     __ptext15:	
  4212 ;; *************** function _I2C_Send *****************
  4213 ;; Defined at:
  4214 ;;		line 170 in file "skI2Clib.c"
  4215 ;; Parameters:    Size  Location     Type
  4216 ;;  dt              1    wreg     unsigned char 
  4217 ;; Auto vars:     Size  Location     Type
  4218 ;;  dt              1    2[BANK1 ] unsigned char 
  4219 ;; Return value:  Size  Location     Type
  4220 ;;                  2    6[None  ] int 
  4221 ;; Registers used:
  4222 ;;		wreg, status,2, status,0, pclath, cstack
  4223 ;; Tracked objects:
  4224 ;;		On entry : 0/0
  4225 ;;		On exit  : 0/0
  4226 ;;		Unchanged: 0/0
  4227 ;; Data sizes:     COMMON   BANK0   BANK1   BANK2   BANK3   BANK4
  4228 ;;      Params:         0       0       0       0       0       0
  4229 ;;      Locals:         0       0       1       0       0       0
  4230 ;;      Temps:          0       0       0       0       0       0
  4231 ;;      Totals:         0       0       1       0       0       0
  4232 ;;Total ram usage:        1 bytes
  4233 ;; Hardware stack levels used:    1
  4234 ;; Hardware stack levels required when called:    4
  4235 ;; This function calls:
  4236 ;;		_I2C_IdleCheck
  4237 ;; This function is called by:
  4238 ;;		_command
  4239 ;;		_LCD_Puts
  4240 ;;		_LCD_Putc
  4241 ;;		_LCD_CreateChar
  4242 ;;		_LCD_IconClear
  4243 ;;		_LCD_IconOnOff
  4244 ;;		_I2C_SlaveRead
  4245 ;;		_I2C_SlaveWrite
  4246 ;; This function uses a non-reentrant model
  4247 ;;
  4248                           
  4249                           
  4250                           ;psect for function _I2C_Send
  4251  0D97                     _I2C_Send:	
  4252                           
  4253                           ;incstack = 0
  4254                           ; Regs used in _I2C_Send: [wreg+status,2+status,0+pclath+cstack]
  4255                           ;I2C_Send@dt stored from wreg
  4256  0D97  0021               	movlb	1	; select bank1
  4257  0D98  00A2               	movwf	I2C_Send@dt^(0+128)
  4258                           
  4259                           ;skI2Clib.c: 172: CollisionCheck = 0 ;
  4260  0D99  01E9               	clrf	_CollisionCheck^(0+128)
  4261  0D9A  01EA               	clrf	(_CollisionCheck+1)^(0+128)
  4262                           
  4263                           ;skI2Clib.c: 173: I2C_IdleCheck(0x5) ;
  4264  0D9B  3005               	movlw	5
  4265  0D9C  318C  24D0  318D   	fcall	_I2C_IdleCheck
  4266                           
  4267                           ;skI2Clib.c: 174: if (CollisionCheck == 1) return -1 ;
  4268  0D9F  0021               	movlb	1	; select bank1
  4269  0DA0  0369               	decf	_CollisionCheck^(0+128),w
  4270  0DA1  046A               	iorwf	(_CollisionCheck+1)^(0+128),w
  4271  0DA2  1903               	btfsc	3,2
  4272  0DA3  0008               	return
  4273                           
  4274                           ;skI2Clib.c: 175: AckCheck = 1 ;
  4275                           
  4276                           ;	Return value of _I2C_Send is never used
  4277  0DA4  3001               	movlw	1
  4278  0DA5  0020               	movlb	0	; select bank0
  4279  0DA6  00D7               	movwf	_AckCheck
  4280  0DA7  3000               	movlw	0
  4281  0DA8  00D8               	movwf	_AckCheck+1
  4282                           
  4283                           ;skI2Clib.c: 176: SSP1BUF = dt ;
  4284  0DA9  0021               	movlb	1	; select bank1
  4285  0DAA  0822               	movf	I2C_Send@dt^(0+128),w
  4286  0DAB  0024               	movlb	4	; select bank4
  4287  0DAC  0091               	movwf	17	;volatile
  4288  0DAD                     l2126:	
  4289                           ;skI2Clib.c: 177: while (AckCheck) ;
  4290                           
  4291  0DAD  0020               	movlb	0	; select bank0
  4292  0DAE  0857               	movf	_AckCheck,w
  4293  0DAF  0458               	iorwf	_AckCheck+1,w
  4294  0DB0  1D03               	btfss	3,2
  4295  0DB1  2DAD               	goto	l2126
  4296                           
  4297                           ;skI2Clib.c: 178: if (CollisionCheck == 1) return -1 ;
  4298  0DB2  0021               	movlb	1	; select bank1
  4299  0DB3  0369               	decf	_CollisionCheck^(0+128),w
  4300  0DB4  046A               	iorwf	(_CollisionCheck+1)^(0+128),w
  4301  0DB5  1903               	btfsc	3,2
  4302  0DB6  0008               	return
  4303                           
  4304                           ;skI2Clib.c: 179: return SSP1CON2bits.ACKSTAT ;
  4305                           ;	Return value of _I2C_Send is never used
  4306                           
  4307                           ;	Return value of _I2C_Send is never used
  4308  0DB7  0024               	movlb	4	; select bank4
  4309  0DB8  0816               	movf	22,w	;volatile
  4310  0DB9  0008               	return
  4311  0DBA                     __end_of_I2C_Send:	
  4312                           
  4313                           	psect	text16
  4314  0CD0                     __ptext16:	
  4315 ;; *************** function _I2C_IdleCheck *****************
  4316 ;; Defined at:
  4317 ;;		line 46 in file "skI2Clib.c"
  4318 ;; Parameters:    Size  Location     Type
  4319 ;;  mask            1    wreg     unsigned char 
  4320 ;; Auto vars:     Size  Location     Type
  4321 ;;  mask            1    1[BANK1 ] unsigned char 
  4322 ;; Return value:  Size  Location     Type
  4323 ;;                  1    wreg      void 
  4324 ;; Registers used:
  4325 ;;		wreg, status,2, status,0
  4326 ;; Tracked objects:
  4327 ;;		On entry : 0/0
  4328 ;;		On exit  : 0/0
  4329 ;;		Unchanged: 0/0
  4330 ;; Data sizes:     COMMON   BANK0   BANK1   BANK2   BANK3   BANK4
  4331 ;;      Params:         0       0       0       0       0       0
  4332 ;;      Locals:         0       0       1       0       0       0
  4333 ;;      Temps:          0       0       1       0       0       0
  4334 ;;      Totals:         0       0       2       0       0       0
  4335 ;;Total ram usage:        2 bytes
  4336 ;; Hardware stack levels used:    1
  4337 ;; Hardware stack levels required when called:    3
  4338 ;; This function calls:
  4339 ;;		Nothing
  4340 ;; This function is called by:
  4341 ;;		_I2C_Start
  4342 ;;		_I2C_Stop
  4343 ;;		_I2C_Send
  4344 ;;		_I2C_rStart
  4345 ;;		_I2C_Receive
  4346 ;; This function uses a non-reentrant model
  4347 ;;
  4348                           
  4349                           
  4350                           ;psect for function _I2C_IdleCheck
  4351  0CD0                     _I2C_IdleCheck:	
  4352                           
  4353                           ;incstack = 0
  4354                           ; Regs used in _I2C_IdleCheck: [wreg+status,2+status,0]
  4355                           ;I2C_IdleCheck@mask stored from wreg
  4356  0CD0  0021               	movlb	1	; select bank1
  4357  0CD1  00A1               	movwf	I2C_IdleCheck@mask^(0+128)
  4358  0CD2                     l2082:	
  4359                           ;skI2Clib.c: 48: while (( SSP1CON2 & 0x1F ) | (SSP1STAT & mask)) ;
  4360                           
  4361  0CD2  0821               	movf	I2C_IdleCheck@mask^(0+128),w
  4362  0CD3  0024               	movlb	4	; select bank4
  4363  0CD4  0514               	andwf	20,w	;volatile
  4364  0CD5  0021               	movlb	1	; select bank1
  4365  0CD6  00A0               	movwf	??_I2C_IdleCheck^(0+128)
  4366  0CD7  0024               	movlb	4	; select bank4
  4367  0CD8  0816               	movf	22,w	;volatile
  4368  0CD9  391F               	andlw	31
  4369  0CDA  0021               	movlb	1	; select bank1
  4370  0CDB  0420               	iorwf	??_I2C_IdleCheck^(0+128),w
  4371  0CDC  1903               	btfsc	3,2
  4372  0CDD  0008               	return
  4373  0CDE  2CD2               	goto	l2082
  4374  0CDF                     __end_of_I2C_IdleCheck:	
  4375                           
  4376                           	psect	text17
  4377  0D42                     __ptext17:	
  4378 ;; *************** function _InitI2C_Master *****************
  4379 ;; Defined at:
  4380 ;;		line 79 in file "skI2Clib.c"
  4381 ;; Parameters:    Size  Location     Type
  4382 ;;  speed           2    0[BANK1 ] int 
  4383 ;; Auto vars:     Size  Location     Type
  4384 ;;		None
  4385 ;; Return value:  Size  Location     Type
  4386 ;;                  1    wreg      void 
  4387 ;; Registers used:
  4388 ;;		wreg, status,2, status,0
  4389 ;; Tracked objects:
  4390 ;;		On entry : 0/0
  4391 ;;		On exit  : 0/0
  4392 ;;		Unchanged: 0/0
  4393 ;; Data sizes:     COMMON   BANK0   BANK1   BANK2   BANK3   BANK4
  4394 ;;      Params:         0       0       2       0       0       0
  4395 ;;      Locals:         0       0       0       0       0       0
  4396 ;;      Temps:          0       0       0       0       0       0
  4397 ;;      Totals:         0       0       2       0       0       0
  4398 ;;Total ram usage:        2 bytes
  4399 ;; Hardware stack levels used:    1
  4400 ;; Hardware stack levels required when called:    3
  4401 ;; This function calls:
  4402 ;;		Nothing
  4403 ;; This function is called by:
  4404 ;;		_main
  4405 ;; This function uses a non-reentrant model
  4406 ;;
  4407                           
  4408                           
  4409                           ;psect for function _InitI2C_Master
  4410  0D42                     _InitI2C_Master:	
  4411                           
  4412                           ;skI2Clib.c: 81: SSP1STAT= 0b10000000 ;
  4413                           
  4414                           ;incstack = 0
  4415                           ; Regs used in _InitI2C_Master: [wreg+status,2+status,0]
  4416  0D42  3080               	movlw	128
  4417  0D43  0024               	movlb	4	; select bank4
  4418  0D44  0094               	movwf	20	;volatile
  4419                           
  4420                           ;skI2Clib.c: 82: SSP1CON1= 0b00101000 ;
  4421  0D45  3028               	movlw	40
  4422  0D46  0095               	movwf	21	;volatile
  4423                           
  4424                           ;skI2Clib.c: 83: if (speed == 0) {
  4425  0D47  0021               	movlb	1	; select bank1
  4426  0D48  0820               	movf	InitI2C_Master@speed^(0+128),w
  4427  0D49  0421               	iorwf	(InitI2C_Master@speed+1)^(0+128),w
  4428  0D4A  1D03               	btfss	3,2
  4429  0D4B  2D50               	goto	l2348
  4430                           
  4431                           ;skI2Clib.c: 84: SSP1ADD = 0x13 ;
  4432  0D4C  3013               	movlw	19
  4433  0D4D  0024               	movlb	4	; select bank4
  4434  0D4E  0092               	movwf	18	;volatile
  4435                           
  4436                           ;skI2Clib.c: 85: } else {
  4437  0D4F  2D54               	goto	l2352
  4438  0D50                     l2348:	
  4439                           
  4440                           ;skI2Clib.c: 86: SSP1ADD = 0x04 ;
  4441  0D50  3004               	movlw	4
  4442  0D51  0024               	movlb	4	; select bank4
  4443  0D52  0092               	movwf	18	;volatile
  4444                           
  4445                           ;skI2Clib.c: 87: SSP1STATbits.SMP = 0 ;
  4446  0D53  1394               	bcf	20,7	;volatile
  4447  0D54                     l2352:	
  4448                           
  4449                           ;skI2Clib.c: 88: }
  4450                           ;skI2Clib.c: 89: SSP1IE = 1 ;
  4451  0D54  0021               	movlb	1	; select bank1
  4452  0D55  1591               	bsf	17,3	;volatile
  4453                           
  4454                           ;skI2Clib.c: 90: BCL1IE = 1 ;
  4455  0D56  1592               	bsf	18,3	;volatile
  4456                           
  4457                           ;skI2Clib.c: 91: PEIE = 1 ;
  4458  0D57  170B               	bsf	11,6	;volatile
  4459                           
  4460                           ;skI2Clib.c: 92: GIE = 1 ;
  4461  0D58  178B               	bsf	11,7	;volatile
  4462                           
  4463                           ;skI2Clib.c: 93: SSP1IF = 0 ;
  4464  0D59  0020               	movlb	0	; select bank0
  4465  0D5A  1191               	bcf	17,3	;volatile
  4466                           
  4467                           ;skI2Clib.c: 94: BCL1IF = 0 ;
  4468  0D5B  1192               	bcf	18,3	;volatile
  4469  0D5C  0008               	return
  4470  0D5D                     __end_of_InitI2C_Master:	
  4471                           
  4472                           	psect	intentry
  4473  0004                     __pintentry:	
  4474 ;; *************** function _InterFunction *****************
  4475 ;; Defined at:
  4476 ;;		line 56 in file "source1.c"
  4477 ;; Parameters:    Size  Location     Type
  4478 ;;		None
  4479 ;; Auto vars:     Size  Location     Type
  4480 ;;		None
  4481 ;; Return value:  Size  Location     Type
  4482 ;;                  2  327[None  ] unsigned int 
  4483 ;; Registers used:
  4484 ;;		wreg, status,2, status,0, pclath, cstack
  4485 ;; Tracked objects:
  4486 ;;		On entry : 0/0
  4487 ;;		On exit  : 0/0
  4488 ;;		Unchanged: 0/0
  4489 ;; Data sizes:     COMMON   BANK0   BANK1   BANK2   BANK3   BANK4
  4490 ;;      Params:         0       0       0       0       0       0
  4491 ;;      Locals:         0       0       0       0       0       0
  4492 ;;      Temps:          0       5       0       0       0       0
  4493 ;;      Totals:         0       5       0       0       0       0
  4494 ;;Total ram usage:        5 bytes
  4495 ;; Hardware stack levels used:    1
  4496 ;; Hardware stack levels required when called:    2
  4497 ;; This function calls:
  4498 ;;		_InterI2C
  4499 ;;		___ftadd
  4500 ;;		___ftmul
  4501 ;;		___ftneg
  4502 ;;		___fttol
  4503 ;;		___lwtoft
  4504 ;; This function is called by:
  4505 ;;		Interrupt level 1
  4506 ;; This function uses a non-reentrant model
  4507 ;;
  4508                           
  4509  0004                     _InterFunction:	
  4510                           
  4511                           ;incstack = 0
  4512  0004  147E               	bsf	126,0	;set compiler interrupt flag (level 1)
  4513                           
  4514                           ; Regs used in _InterFunction: [wreg+status,2+status,0+pclath+cstack]
  4515  0005  3180               	pagesel	$
  4516  0006  0020               	movlb	0	; select bank0
  4517  0007  087F               	movf	127,w
  4518  0008  00D2               	movwf	??_InterFunction+4
  4519                           
  4520                           ;source1.c: 58: static unsigned int spdpl;
  4521                           ;source1.c: 60: InterI2C() ;
  4522  0009  318D  2514  3180   	fcall	_InterI2C
  4523                           
  4524                           ;source1.c: 67: if(C1IF){
  4525  000C  0020               	movlb	0	; select bank0
  4526  000D  1E92               	btfss	18,5	;volatile
  4527  000E  2855               	goto	i1l2926
  4528                           
  4529                           ;source1.c: 68: spdpl = spdpl + 1;
  4530  000F  0853               	movf	InterFunction@spdpl,w
  4531  0010  3E01               	addlw	1
  4532  0011  00D3               	movwf	InterFunction@spdpl
  4533  0012  3000               	movlw	0
  4534  0013  3D54               	addwfc	InterFunction@spdpl+1,w
  4535  0014  00D4               	movwf	InterFunction@spdpl+1
  4536                           
  4537                           ;source1.c: 69: if(C1OUT){
  4538  0015  0022               	movlb	2	; select bank2
  4539  0016  1F11               	btfss	17,6	;volatile
  4540  0017  2853               	goto	i1l2924
  4541                           
  4542                           ;source1.c: 70: pulse = pulse + 1;
  4543  0018  0020               	movlb	0	; select bank0
  4544  0019  0861               	movf	_pulse,w
  4545  001A  3E01               	addlw	1
  4546  001B  00E1               	movwf	_pulse
  4547  001C  3000               	movlw	0
  4548  001D  3D62               	addwfc	_pulse+1,w
  4549  001E  00E2               	movwf	_pulse+1
  4550                           
  4551                           ;source1.c: 71: if(pulse >= 37800){
  4552  001F  3093               	movlw	147
  4553  0020  0262               	subwf	_pulse+1,w
  4554  0021  30A8               	movlw	168
  4555  0022  1903               	skipnz
  4556  0023  0261               	subwf	_pulse,w
  4557  0024  1C03               	skipc
  4558  0025  2853               	goto	i1l2924
  4559                           
  4560                           ;source1.c: 72: odo = odo + 1;
  4561  0026  3001               	movlw	1
  4562  0027  00CE               	movwf	??_InterFunction
  4563  0028  3000               	movlw	0
  4564  0029  00CF               	movwf	??_InterFunction+1
  4565  002A  3000               	movlw	0
  4566  002B  00D0               	movwf	??_InterFunction+2
  4567  002C  3000               	movlw	0
  4568  002D  00D1               	movwf	??_InterFunction+3
  4569  002E  085D               	movf	_odo,w
  4570  002F  07CE               	addwf	??_InterFunction,f
  4571  0030  085E               	movf	_odo+1,w
  4572  0031  3DCF               	addwfc	??_InterFunction+1,f
  4573  0032  085F               	movf	_odo+2,w
  4574  0033  3DD0               	addwfc	??_InterFunction+2,f
  4575  0034  0860               	movf	_odo+3,w
  4576  0035  3DD1               	addwfc	??_InterFunction+3,f
  4577  0036  0851               	movf	??_InterFunction+3,w
  4578  0037  00E0               	movwf	_odo+3
  4579  0038  0850               	movf	??_InterFunction+2,w
  4580  0039  00DF               	movwf	_odo+2
  4581  003A  084F               	movf	??_InterFunction+1,w
  4582  003B  00DE               	movwf	_odo+1
  4583  003C  084E               	movf	??_InterFunction,w
  4584  003D  00DD               	movwf	_odo
  4585                           
  4586                           ;source1.c: 73: if(odo > 99999){
  4587  003E  0860               	movf	_odo+3,w
  4588  003F  1D03               	btfss	3,2
  4589  0040  2849               	goto	i1l2920
  4590  0041  30A0               	movlw	160
  4591  0042  025D               	subwf	_odo,w
  4592  0043  3086               	movlw	134
  4593  0044  3B5E               	subwfb	_odo+1,w
  4594  0045  3001               	movlw	1
  4595  0046  3B5F               	subwfb	_odo+2,w
  4596  0047  1C03               	btfss	3,0
  4597  0048  2851               	goto	i1l2922
  4598  0049                     i1l2920:	
  4599                           
  4600                           ;source1.c: 74: odo = 0;
  4601  0049  3000               	movlw	0
  4602  004A  00E0               	movwf	_odo+3
  4603  004B  3000               	movlw	0
  4604  004C  00DF               	movwf	_odo+2
  4605  004D  3000               	movlw	0
  4606  004E  00DE               	movwf	_odo+1
  4607  004F  3000               	movlw	0
  4608  0050  00DD               	movwf	_odo
  4609  0051                     i1l2922:	
  4610                           
  4611                           ;source1.c: 75: }
  4612                           ;source1.c: 76: pulse = 0;
  4613  0051  01E1               	clrf	_pulse
  4614  0052  01E2               	clrf	_pulse+1
  4615  0053                     i1l2924:	
  4616                           
  4617                           ;source1.c: 77: }
  4618                           ;source1.c: 78: }
  4619                           ;source1.c: 79: C1IF = 0 ;
  4620  0053  0020               	movlb	0	; select bank0
  4621  0054  1292               	bcf	18,5	;volatile
  4622  0055                     i1l2926:	
  4623                           
  4624                           ;source1.c: 80: }
  4625                           ;source1.c: 82: if(TMR1IF){
  4626  0055  1C11               	btfss	17,0	;volatile
  4627  0056  28CC               	goto	i1l2952
  4628                           
  4629                           ;source1.c: 83: spdval = spdpl;
  4630  0057  0854               	movf	InterFunction@spdpl+1,w
  4631  0058  00D6               	movwf	_spdval+1
  4632  0059  0853               	movf	InterFunction@spdpl,w
  4633  005A  00D5               	movwf	_spdval
  4634                           
  4635                           ;source1.c: 84: spdpl = 0;
  4636  005B  01D3               	clrf	InterFunction@spdpl
  4637  005C  01D4               	clrf	InterFunction@spdpl+1
  4638                           
  4639                           ;source1.c: 85: if(spdval >= 87){
  4640  005D  3000               	movlw	0
  4641  005E  0256               	subwf	_spdval+1,w
  4642  005F  3057               	movlw	87
  4643  0060  1903               	skipnz
  4644  0061  0255               	subwf	_spdval,w
  4645  0062  1C03               	skipc
  4646  0063  2866               	goto	i1l2936
  4647                           
  4648                           ;source1.c: 86: width = 49;
  4649  0064  3031               	movlw	49
  4650  0065  28C4               	goto	L6
  4651  0066                     i1l2936:	
  4652                           ;source1.c: 87: }
  4653                           
  4654                           
  4655                           ;source1.c: 88: else if(spdval <= 10){
  4656  0066  3000               	movlw	0
  4657  0067  0256               	subwf	_spdval+1,w
  4658  0068  300B               	movlw	11
  4659  0069  1903               	skipnz
  4660  006A  0255               	subwf	_spdval,w
  4661  006B  1803               	skipnc
  4662  006C  2881               	goto	i1l2940
  4663                           
  4664                           ;source1.c: 89: width = 239 - (spdval * 1.7);
  4665  006D  0856               	movf	_spdval+1,w
  4666  006E  00F9               	movwf	___lwtoft@c+1
  4667  006F  0855               	movf	_spdval,w
  4668  0070  00F8               	movwf	___lwtoft@c
  4669  0071  318C  24EE  3180   	fcall	___lwtoft
  4670  0074  0878               	movf	?___lwtoft,w
  4671  0075  0020               	movlb	0	; select bank0
  4672  0076  00A3               	movwf	___ftmul@f2
  4673  0077  0879               	movf	?___lwtoft+1,w
  4674  0078  00A4               	movwf	___ftmul@f2+1
  4675  0079  087A               	movf	?___lwtoft+2,w
  4676  007A  00A5               	movwf	___ftmul@f2+2
  4677  007B  309A               	movlw	154
  4678  007C  00A0               	movwf	___ftmul@f1
  4679  007D  30D9               	movlw	217
  4680  007E  00A1               	movwf	___ftmul@f1+1
  4681  007F  303F               	movlw	63
  4682  0080  289A               	goto	L7
  4683  0081                     i1l2940:	
  4684                           ;source1.c: 90: }
  4685                           
  4686                           
  4687                           ;source1.c: 91: else if (spdval == 0){
  4688  0081  0855               	movf	_spdval,w
  4689  0082  0456               	iorwf	_spdval+1,w
  4690  0083  1D03               	btfss	3,2
  4691  0084  2887               	goto	i1l2944
  4692                           
  4693                           ;source1.c: 92: width = 239 ;
  4694  0085  30EF               	movlw	239
  4695  0086  28C4               	goto	L6
  4696  0087                     i1l2944:	
  4697                           ;source1.c: 93: }
  4698                           
  4699                           
  4700                           ;source1.c: 94: else{
  4701                           ;source1.c: 95: width = 239 - (spdval * 2.26);
  4702  0087  0856               	movf	_spdval+1,w
  4703  0088  00F9               	movwf	___lwtoft@c+1
  4704  0089  0855               	movf	_spdval,w
  4705  008A  00F8               	movwf	___lwtoft@c
  4706  008B  318C  24EE  3180   	fcall	___lwtoft
  4707  008E  0878               	movf	?___lwtoft,w
  4708  008F  0020               	movlb	0	; select bank0
  4709  0090  00A3               	movwf	___ftmul@f2
  4710  0091  0879               	movf	?___lwtoft+1,w
  4711  0092  00A4               	movwf	___ftmul@f2+1
  4712  0093  087A               	movf	?___lwtoft+2,w
  4713  0094  00A5               	movwf	___ftmul@f2+2
  4714  0095  30A4               	movlw	164
  4715  0096  00A0               	movwf	___ftmul@f1
  4716  0097  3010               	movlw	16
  4717  0098  00A1               	movwf	___ftmul@f1+1
  4718  0099  3040               	movlw	64
  4719  009A                     L7:	
  4720  009A  00A2               	movwf	___ftmul@f1+2
  4721  009B  3186  26F6  3180   	fcall	___ftmul
  4722  009E  0020               	movlb	0	; select bank0
  4723  009F  0820               	movf	?___ftmul,w
  4724  00A0  00B0               	movwf	___ftneg@f1
  4725  00A1  0821               	movf	?___ftmul+1,w
  4726  00A2  00B1               	movwf	___ftneg@f1+1
  4727  00A3  0822               	movf	?___ftmul+2,w
  4728  00A4  00B2               	movwf	___ftneg@f1+2
  4729  00A5  318C  24BE  3180   	fcall	___ftneg
  4730  00A8  0020               	movlb	0	; select bank0
  4731  00A9  0830               	movf	?___ftneg,w
  4732  00AA  00B6               	movwf	___ftadd@f2
  4733  00AB  0831               	movf	?___ftneg+1,w
  4734  00AC  00B7               	movwf	___ftadd@f2+1
  4735  00AD  0832               	movf	?___ftneg+2,w
  4736  00AE  00B8               	movwf	___ftadd@f2+2
  4737  00AF  3000               	movlw	0
  4738  00B0  00B3               	movwf	___ftadd@f1
  4739  00B1  306F               	movlw	111
  4740  00B2  00B4               	movwf	___ftadd@f1+1
  4741  00B3  3043               	movlw	67
  4742  00B4  00B5               	movwf	___ftadd@f1+2
  4743  00B5  3186  2600  3180   	fcall	___ftadd
  4744  00B8  0020               	movlb	0	; select bank0
  4745  00B9  0833               	movf	?___ftadd,w
  4746  00BA  00C0               	movwf	___fttol@f1
  4747  00BB  0834               	movf	?___ftadd+1,w
  4748  00BC  00C1               	movwf	___fttol@f1+1
  4749  00BD  0835               	movf	?___ftadd+2,w
  4750  00BE  00C2               	movwf	___fttol@f1+2
  4751  00BF  318F  2779  3180   	fcall	___fttol
  4752  00C2  0020               	movlb	0	; select bank0
  4753  00C3  0840               	movf	?___fttol,w
  4754  00C4                     L6:	
  4755  00C4  00CE               	movwf	??_InterFunction
  4756  00C5  084E               	movf	??_InterFunction,w
  4757  00C6  00DC               	movwf	InterFunction@width
  4758                           
  4759                           ;source1.c: 96: }
  4760                           ;source1.c: 98: TMR1H = 69 ;
  4761  00C7  3045               	movlw	69
  4762  00C8  0097               	movwf	23	;volatile
  4763                           
  4764                           ;source1.c: 99: TMR1L = 253 ;
  4765  00C9  30FD               	movlw	253
  4766  00CA  0096               	movwf	22	;volatile
  4767                           
  4768                           ;source1.c: 100: TMR1IF = 0;
  4769  00CB  1011               	bcf	17,0	;volatile
  4770  00CC                     i1l2952:	
  4771                           
  4772                           ;source1.c: 101: }
  4773                           ;source1.c: 103: if(TMR2IF){
  4774  00CC  1891               	btfsc	17,1	;volatile
  4775                           
  4776                           ;source1.c: 104: if(RB7 == 0){
  4777  00CD  1B8D               	btfsc	13,7	;volatile
  4778  00CE  28E0               	goto	i1l2966
  4779                           
  4780                           ;source1.c: 105: if(widbuf != width){
  4781  00CF  085B               	movf	InterFunction@widbuf,w
  4782  00D0  065C               	xorwf	InterFunction@width,w
  4783  00D1  1903               	skipnz
  4784  00D2  28DE               	goto	i1l2964
  4785                           
  4786                           ;source1.c: 106: widbuf = width;
  4787  00D3  085C               	movf	InterFunction@width,w
  4788  00D4  00CE               	movwf	??_InterFunction
  4789  00D5  084E               	movf	??_InterFunction,w
  4790  00D6  00DB               	movwf	InterFunction@widbuf
  4791                           
  4792                           ;source1.c: 107: PR4 = width;
  4793  00D7  085C               	movf	InterFunction@width,w
  4794  00D8  0028               	movlb	8	; select bank8
  4795  00D9  0096               	movwf	22	;volatile
  4796                           
  4797                           ;source1.c: 108: RA1 = 1;
  4798  00DA  0020               	movlb	0	; select bank0
  4799  00DB  148C               	bsf	12,1	;volatile
  4800                           
  4801                           ;source1.c: 109: TMR4ON = 1;
  4802  00DC  0028               	movlb	8	; select bank8
  4803  00DD  1517               	bsf	23,2	;volatile
  4804  00DE                     i1l2964:	
  4805                           
  4806                           ;source1.c: 110: }
  4807                           ;source1.c: 111: TMR2IF = 0;
  4808  00DE  0020               	movlb	0	; select bank0
  4809  00DF  1091               	bcf	17,1	;volatile
  4810  00E0                     i1l2966:	
  4811                           
  4812                           ;source1.c: 112: }
  4813                           ;source1.c: 113: }
  4814                           ;source1.c: 115: if(TMR4IF){
  4815  00E0  1C93               	btfss	19,1	;volatile
  4816  00E1  28E8               	goto	i1l349
  4817                           
  4818                           ;source1.c: 116: RA1 = 0;
  4819  00E2  108C               	bcf	12,1	;volatile
  4820                           
  4821                           ;source1.c: 117: TMR4ON = 0;
  4822  00E3  0028               	movlb	8	; select bank8
  4823  00E4  1117               	bcf	23,2	;volatile
  4824                           
  4825                           ;source1.c: 118: TMR4 = 0;
  4826  00E5  0195               	clrf	21	;volatile
  4827                           
  4828                           ;source1.c: 119: TMR4IF = 0;
  4829  00E6  0020               	movlb	0	; select bank0
  4830  00E7  1093               	bcf	19,1	;volatile
  4831  00E8                     i1l349:	
  4832  00E8  0852               	movf	??_InterFunction+4,w
  4833  00E9  00FF               	movwf	127
  4834  00EA  107E               	bcf	126,0	;clear compiler interrupt flag (level 1)
  4835  00EB  0009               	retfie
  4836  00EC                     __end_of_InterFunction:	
  4837                           
  4838                           	psect	text19
  4839  0CEE                     __ptext19:	
  4840 ;; *************** function ___lwtoft *****************
  4841 ;; Defined at:
  4842 ;;		line 28 in file "C:\Program Files (x86)\Microchip\xc8\v1.45\sources\common\lwtoft.c"
  4843 ;; Parameters:    Size  Location     Type
  4844 ;;  c               2    8[COMMON] unsigned int 
  4845 ;; Auto vars:     Size  Location     Type
  4846 ;;		None
  4847 ;; Return value:  Size  Location     Type
  4848 ;;                  3    8[COMMON] float 
  4849 ;; Registers used:
  4850 ;;		wreg, status,2, status,0, pclath, cstack
  4851 ;; Tracked objects:
  4852 ;;		On entry : 0/0
  4853 ;;		On exit  : 0/0
  4854 ;;		Unchanged: 0/0
  4855 ;; Data sizes:     COMMON   BANK0   BANK1   BANK2   BANK3   BANK4
  4856 ;;      Params:         3       0       0       0       0       0
  4857 ;;      Locals:         0       0       0       0       0       0
  4858 ;;      Temps:          1       0       0       0       0       0
  4859 ;;      Totals:         4       0       0       0       0       0
  4860 ;;Total ram usage:        4 bytes
  4861 ;; Hardware stack levels used:    1
  4862 ;; Hardware stack levels required when called:    1
  4863 ;; This function calls:
  4864 ;;		___ftpack
  4865 ;; This function is called by:
  4866 ;;		_InterFunction
  4867 ;; This function uses a non-reentrant model
  4868 ;;
  4869                           
  4870                           
  4871                           ;psect for function ___lwtoft
  4872  0CEE                     ___lwtoft:	
  4873                           
  4874                           ;incstack = 0
  4875                           ; Regs used in ___lwtoft: [wreg+status,2+status,0+pclath+cstack]
  4876  0CEE  0878               	movf	___lwtoft@c,w
  4877  0CEF  00F0               	movwf	___ftpack@arg
  4878  0CF0  0879               	movf	___lwtoft@c+1,w
  4879  0CF1  00F1               	movwf	___ftpack@arg+1
  4880  0CF2  01F2               	clrf	___ftpack@arg+2
  4881  0CF3  308E               	movlw	142
  4882  0CF4  00FB               	movwf	??___lwtoft
  4883  0CF5  087B               	movf	??___lwtoft,w
  4884  0CF6  00F3               	movwf	___ftpack@exp
  4885  0CF7  01F4               	clrf	___ftpack@sign
  4886  0CF8  318E  2693         	fcall	___ftpack
  4887  0CFA  0870               	movf	?___ftpack,w
  4888  0CFB  00F8               	movwf	?___lwtoft
  4889  0CFC  0871               	movf	?___ftpack+1,w
  4890  0CFD  00F9               	movwf	?___lwtoft+1
  4891  0CFE  0872               	movf	?___ftpack+2,w
  4892  0CFF  00FA               	movwf	?___lwtoft+2
  4893  0D00  0008               	return
  4894  0D01                     __end_of___lwtoft:	
  4895                           
  4896                           	psect	text20
  4897  0F79                     __ptext20:	
  4898 ;; *************** function ___fttol *****************
  4899 ;; Defined at:
  4900 ;;		line 44 in file "C:\Program Files (x86)\Microchip\xc8\v1.45\sources\common\fttol.c"
  4901 ;; Parameters:    Size  Location     Type
  4902 ;;  f1              3   32[BANK0 ] float 
  4903 ;; Auto vars:     Size  Location     Type
  4904 ;;  lval            4   41[BANK0 ] unsigned long 
  4905 ;;  exp1            1   45[BANK0 ] unsigned char 
  4906 ;;  sign1           1   40[BANK0 ] unsigned char 
  4907 ;; Return value:  Size  Location     Type
  4908 ;;                  4   32[BANK0 ] long 
  4909 ;; Registers used:
  4910 ;;		wreg, status,2, status,0
  4911 ;; Tracked objects:
  4912 ;;		On entry : 0/0
  4913 ;;		On exit  : 0/0
  4914 ;;		Unchanged: 0/0
  4915 ;; Data sizes:     COMMON   BANK0   BANK1   BANK2   BANK3   BANK4
  4916 ;;      Params:         0       4       0       0       0       0
  4917 ;;      Locals:         0       6       0       0       0       0
  4918 ;;      Temps:          0       4       0       0       0       0
  4919 ;;      Totals:         0      14       0       0       0       0
  4920 ;;Total ram usage:       14 bytes
  4921 ;; Hardware stack levels used:    1
  4922 ;; This function calls:
  4923 ;;		Nothing
  4924 ;; This function is called by:
  4925 ;;		_InterFunction
  4926 ;; This function uses a non-reentrant model
  4927 ;;
  4928                           
  4929                           
  4930                           ;psect for function ___fttol
  4931  0F79                     ___fttol:	
  4932                           
  4933                           ;incstack = 0
  4934                           ; Regs used in ___fttol: [wreg+status,2+status,0]
  4935  0F79  0020               	movlb	0	; select bank0
  4936  0F7A  0840               	movf	___fttol@f1,w
  4937  0F7B  00C4               	movwf	??___fttol
  4938  0F7C  0841               	movf	___fttol@f1+1,w
  4939  0F7D  00C5               	movwf	??___fttol+1
  4940  0F7E  0842               	movf	___fttol@f1+2,w
  4941  0F7F  00C6               	movwf	??___fttol+2
  4942  0F80  1003               	clrc
  4943  0F81  0D45               	rlf	??___fttol+1,w
  4944  0F82  0D46               	rlf	??___fttol+2,w
  4945  0F83  00C7               	movwf	??___fttol+3
  4946  0F84  0847               	movf	??___fttol+3,w
  4947  0F85  00CD               	movwf	___fttol@exp1
  4948  0F86  084D               	movf	___fttol@exp1,w
  4949  0F87  1D03               	btfss	3,2
  4950  0F88  2F92               	goto	i1l2654
  4951  0F89  3000               	movlw	0
  4952  0F8A  00C3               	movwf	?___fttol+3
  4953  0F8B  3000               	movlw	0
  4954  0F8C  00C2               	movwf	?___fttol+2
  4955  0F8D  3000               	movlw	0
  4956  0F8E  00C1               	movwf	?___fttol+1
  4957  0F8F  3000               	movlw	0
  4958  0F90  00C0               	movwf	?___fttol
  4959  0F91  0008               	return
  4960  0F92                     i1l2654:	
  4961  0F92  0840               	movf	___fttol@f1,w
  4962  0F93  00C4               	movwf	??___fttol
  4963  0F94  0841               	movf	___fttol@f1+1,w
  4964  0F95  00C5               	movwf	??___fttol+1
  4965  0F96  0842               	movf	___fttol@f1+2,w
  4966  0F97  00C6               	movwf	??___fttol+2
  4967  0F98  3017               	movlw	23
  4968  0F99                     u297_25:	
  4969  0F99  36C6               	lsrf	??___fttol+2,f
  4970  0F9A  0CC5               	rrf	??___fttol+1,f
  4971  0F9B  0CC4               	rrf	??___fttol,f
  4972  0F9C  0B89               	decfsz	9,f
  4973  0F9D  2F99               	goto	u297_25
  4974  0F9E  0844               	movf	??___fttol,w
  4975  0F9F  00C7               	movwf	??___fttol+3
  4976  0FA0  0847               	movf	??___fttol+3,w
  4977  0FA1  00C8               	movwf	___fttol@sign1
  4978  0FA2  17C1               	bsf	___fttol@f1+1,7
  4979  0FA3  30FF               	movlw	255
  4980  0FA4  05C0               	andwf	___fttol@f1,f
  4981  0FA5  30FF               	movlw	255
  4982  0FA6  05C1               	andwf	___fttol@f1+1,f
  4983  0FA7  3000               	movlw	0
  4984  0FA8  05C2               	andwf	___fttol@f1+2,f
  4985  0FA9  0840               	movf	___fttol@f1,w
  4986  0FAA  00C9               	movwf	___fttol@lval
  4987  0FAB  0841               	movf	___fttol@f1+1,w
  4988  0FAC  00CA               	movwf	___fttol@lval+1
  4989  0FAD  0842               	movf	___fttol@f1+2,w
  4990  0FAE  00CB               	movwf	___fttol@lval+2
  4991  0FAF  01CC               	clrf	___fttol@lval+3
  4992  0FB0  308E               	movlw	142
  4993  0FB1  02CD               	subwf	___fttol@exp1,f
  4994  0FB2  1FCD               	btfss	___fttol@exp1,7
  4995  0FB3  2FD0               	goto	i1l2674
  4996  0FB4  084D               	movf	___fttol@exp1,w
  4997  0FB5  3A80               	xorlw	128
  4998  0FB6  3E8F               	addlw	143
  4999  0FB7  1803               	skipnc
  5000  0FB8  2FC2               	goto	i1l2672
  5001  0FB9  3000               	movlw	0
  5002  0FBA  00C3               	movwf	?___fttol+3
  5003  0FBB  3000               	movlw	0
  5004  0FBC  00C2               	movwf	?___fttol+2
  5005  0FBD  3000               	movlw	0
  5006  0FBE  00C1               	movwf	?___fttol+1
  5007  0FBF  3000               	movlw	0
  5008  0FC0  00C0               	movwf	?___fttol
  5009  0FC1  0008               	return
  5010  0FC2                     i1l2672:	
  5011  0FC2  3001               	movlw	1
  5012  0FC3                     u300_25:	
  5013  0FC3  36CC               	lsrf	___fttol@lval+3,f
  5014  0FC4  0CCB               	rrf	___fttol@lval+2,f
  5015  0FC5  0CCA               	rrf	___fttol@lval+1,f
  5016  0FC6  0CC9               	rrf	___fttol@lval,f
  5017  0FC7  0B89               	decfsz	9,f
  5018  0FC8  2FC3               	goto	u300_25
  5019  0FC9  3001               	movlw	1
  5020  0FCA  00C4               	movwf	??___fttol
  5021  0FCB  0844               	movf	??___fttol,w
  5022  0FCC  07CD               	addwf	___fttol@exp1,f
  5023  0FCD  1903               	btfsc	3,2
  5024  0FCE  2FE9               	goto	i1l2682
  5025  0FCF  2FC2               	goto	i1l2672
  5026  0FD0                     i1l2674:	
  5027  0FD0  3018               	movlw	24
  5028  0FD1  024D               	subwf	___fttol@exp1,w
  5029  0FD2  1C03               	skipc
  5030  0FD3  2FE6               	goto	i1l785
  5031  0FD4  3000               	movlw	0
  5032  0FD5  00C3               	movwf	?___fttol+3
  5033  0FD6  3000               	movlw	0
  5034  0FD7  00C2               	movwf	?___fttol+2
  5035  0FD8  3000               	movlw	0
  5036  0FD9  00C1               	movwf	?___fttol+1
  5037  0FDA  3000               	movlw	0
  5038  0FDB  00C0               	movwf	?___fttol
  5039  0FDC  0008               	return
  5040  0FDD                     i1l2680:	
  5041  0FDD  3001               	movlw	1
  5042  0FDE                     u303_25:	
  5043  0FDE  35C9               	lslf	___fttol@lval,f
  5044  0FDF  0DCA               	rlf	___fttol@lval+1,f
  5045  0FE0  0DCB               	rlf	___fttol@lval+2,f
  5046  0FE1  0DCC               	rlf	___fttol@lval+3,f
  5047  0FE2  0B89               	decfsz	9,f
  5048  0FE3  2FDE               	goto	u303_25
  5049  0FE4  3001               	movlw	1
  5050  0FE5  02CD               	subwf	___fttol@exp1,f
  5051  0FE6                     i1l785:	
  5052  0FE6  084D               	movf	___fttol@exp1,w
  5053  0FE7  1D03               	btfss	3,2
  5054  0FE8  2FDD               	goto	i1l2680
  5055  0FE9                     i1l2682:	
  5056  0FE9  0848               	movf	___fttol@sign1,w
  5057  0FEA  1903               	btfsc	3,2
  5058  0FEB  2FF7               	goto	i1l2686
  5059  0FEC  09C9               	comf	___fttol@lval,f
  5060  0FED  09CA               	comf	___fttol@lval+1,f
  5061  0FEE  09CB               	comf	___fttol@lval+2,f
  5062  0FEF  09CC               	comf	___fttol@lval+3,f
  5063  0FF0  0AC9               	incf	___fttol@lval,f
  5064  0FF1  1903               	skipnz
  5065  0FF2  0ACA               	incf	___fttol@lval+1,f
  5066  0FF3  1903               	skipnz
  5067  0FF4  0ACB               	incf	___fttol@lval+2,f
  5068  0FF5  1903               	skipnz
  5069  0FF6  0ACC               	incf	___fttol@lval+3,f
  5070  0FF7                     i1l2686:	
  5071  0FF7  084C               	movf	___fttol@lval+3,w
  5072  0FF8  00C3               	movwf	?___fttol+3
  5073  0FF9  084B               	movf	___fttol@lval+2,w
  5074  0FFA  00C2               	movwf	?___fttol+2
  5075  0FFB  084A               	movf	___fttol@lval+1,w
  5076  0FFC  00C1               	movwf	?___fttol+1
  5077  0FFD  0849               	movf	___fttol@lval,w
  5078  0FFE  00C0               	movwf	?___fttol
  5079  0FFF  0008               	return
  5080  1000                     __end_of___fttol:	
  5081                           
  5082                           	psect	text21
  5083  0CBE                     __ptext21:	
  5084 ;; *************** function ___ftneg *****************
  5085 ;; Defined at:
  5086 ;;		line 15 in file "C:\Program Files (x86)\Microchip\xc8\v1.45\sources\common\ftneg.c"
  5087 ;; Parameters:    Size  Location     Type
  5088 ;;  f1              3   16[BANK0 ] float 
  5089 ;; Auto vars:     Size  Location     Type
  5090 ;;		None
  5091 ;; Return value:  Size  Location     Type
  5092 ;;                  3   16[BANK0 ] float 
  5093 ;; Registers used:
  5094 ;;		wreg
  5095 ;; Tracked objects:
  5096 ;;		On entry : 0/0
  5097 ;;		On exit  : 0/0
  5098 ;;		Unchanged: 0/0
  5099 ;; Data sizes:     COMMON   BANK0   BANK1   BANK2   BANK3   BANK4
  5100 ;;      Params:         0       3       0       0       0       0
  5101 ;;      Locals:         0       0       0       0       0       0
  5102 ;;      Temps:          0       0       0       0       0       0
  5103 ;;      Totals:         0       3       0       0       0       0
  5104 ;;Total ram usage:        3 bytes
  5105 ;; Hardware stack levels used:    1
  5106 ;; This function calls:
  5107 ;;		Nothing
  5108 ;; This function is called by:
  5109 ;;		_InterFunction
  5110 ;; This function uses a non-reentrant model
  5111 ;;
  5112                           
  5113                           
  5114                           ;psect for function ___ftneg
  5115  0CBE                     ___ftneg:	
  5116                           
  5117                           ;incstack = 0
  5118                           ; Regs used in ___ftneg: [wreg]
  5119  0CBE  0020               	movlb	0	; select bank0
  5120  0CBF  0832               	movf	___ftneg@f1+2,w
  5121  0CC0  0431               	iorwf	___ftneg@f1+1,w
  5122  0CC1  0430               	iorwf	___ftneg@f1,w
  5123  0CC2  1903               	skipnz
  5124  0CC3  0008               	return
  5125  0CC4  3080               	movlw	128
  5126  0CC5  06B2               	xorwf	___ftneg@f1+2,f
  5127  0CC6  0008               	return
  5128  0CC7                     __end_of___ftneg:	
  5129                           
  5130                           	psect	text22
  5131  06F6                     __ptext22:	
  5132 ;; *************** function ___ftmul *****************
  5133 ;; Defined at:
  5134 ;;		line 62 in file "C:\Program Files (x86)\Microchip\xc8\v1.45\sources\common\ftmul.c"
  5135 ;; Parameters:    Size  Location     Type
  5136 ;;  f1              3    0[BANK0 ] float 
  5137 ;;  f2              3    3[BANK0 ] float 
  5138 ;; Auto vars:     Size  Location     Type
  5139 ;;  f3_as_produc    3   11[BANK0 ] unsigned um
  5140 ;;  sign            1   15[BANK0 ] unsigned char 
  5141 ;;  cntr            1   14[BANK0 ] unsigned char 
  5142 ;;  exp             1   10[BANK0 ] unsigned char 
  5143 ;; Return value:  Size  Location     Type
  5144 ;;                  3    0[BANK0 ] float 
  5145 ;; Registers used:
  5146 ;;		wreg, status,2, status,0, pclath, cstack
  5147 ;; Tracked objects:
  5148 ;;		On entry : 0/0
  5149 ;;		On exit  : 0/0
  5150 ;;		Unchanged: 0/0
  5151 ;; Data sizes:     COMMON   BANK0   BANK1   BANK2   BANK3   BANK4
  5152 ;;      Params:         0       6       0       0       0       0
  5153 ;;      Locals:         0       6       0       0       0       0
  5154 ;;      Temps:          0       4       0       0       0       0
  5155 ;;      Totals:         0      16       0       0       0       0
  5156 ;;Total ram usage:       16 bytes
  5157 ;; Hardware stack levels used:    1
  5158 ;; Hardware stack levels required when called:    1
  5159 ;; This function calls:
  5160 ;;		___ftpack
  5161 ;; This function is called by:
  5162 ;;		_InterFunction
  5163 ;; This function uses a non-reentrant model
  5164 ;;
  5165                           
  5166                           
  5167                           ;psect for function ___ftmul
  5168  06F6                     ___ftmul:	
  5169                           
  5170                           ;incstack = 0
  5171                           ; Regs used in ___ftmul: [wreg+status,2+status,0+pclath+cstack]
  5172  06F6  0020               	movlb	0	; select bank0
  5173  06F7  0820               	movf	___ftmul@f1,w
  5174  06F8  00A6               	movwf	??___ftmul
  5175  06F9  0821               	movf	___ftmul@f1+1,w
  5176  06FA  00A7               	movwf	??___ftmul+1
  5177  06FB  0822               	movf	___ftmul@f1+2,w
  5178  06FC  00A8               	movwf	??___ftmul+2
  5179  06FD  1003               	clrc
  5180  06FE  0D27               	rlf	??___ftmul+1,w
  5181  06FF  0D28               	rlf	??___ftmul+2,w
  5182  0700  00A9               	movwf	??___ftmul+3
  5183  0701  0829               	movf	??___ftmul+3,w
  5184  0702  00AA               	movwf	___ftmul@exp
  5185  0703  082A               	movf	___ftmul@exp,w
  5186  0704  1D03               	btfss	3,2
  5187  0705  2F0D               	goto	i1l2596
  5188  0706  3000               	movlw	0
  5189  0707  00A0               	movwf	?___ftmul
  5190  0708  3000               	movlw	0
  5191  0709  00A1               	movwf	?___ftmul+1
  5192  070A  3000               	movlw	0
  5193  070B  00A2               	movwf	?___ftmul+2
  5194  070C  0008               	return
  5195  070D                     i1l2596:	
  5196  070D  0823               	movf	___ftmul@f2,w
  5197  070E  00A6               	movwf	??___ftmul
  5198  070F  0824               	movf	___ftmul@f2+1,w
  5199  0710  00A7               	movwf	??___ftmul+1
  5200  0711  0825               	movf	___ftmul@f2+2,w
  5201  0712  00A8               	movwf	??___ftmul+2
  5202  0713  1003               	clrc
  5203  0714  0D27               	rlf	??___ftmul+1,w
  5204  0715  0D28               	rlf	??___ftmul+2,w
  5205  0716  00A9               	movwf	??___ftmul+3
  5206  0717  0829               	movf	??___ftmul+3,w
  5207  0718  00AF               	movwf	___ftmul@sign
  5208  0719  082F               	movf	___ftmul@sign,w
  5209  071A  1D03               	btfss	3,2
  5210  071B  2F23               	goto	i1l2602
  5211  071C  3000               	movlw	0
  5212  071D  00A0               	movwf	?___ftmul
  5213  071E  3000               	movlw	0
  5214  071F  00A1               	movwf	?___ftmul+1
  5215  0720  3000               	movlw	0
  5216  0721  00A2               	movwf	?___ftmul+2
  5217  0722  0008               	return
  5218  0723                     i1l2602:	
  5219  0723  082F               	movf	___ftmul@sign,w
  5220  0724  3E7B               	addlw	123
  5221  0725  00A6               	movwf	??___ftmul
  5222  0726  0826               	movf	??___ftmul,w
  5223  0727  07AA               	addwf	___ftmul@exp,f
  5224  0728  0820               	movf	___ftmul@f1,w
  5225  0729  00A6               	movwf	??___ftmul
  5226  072A  0821               	movf	___ftmul@f1+1,w
  5227  072B  00A7               	movwf	??___ftmul+1
  5228  072C  0822               	movf	___ftmul@f1+2,w
  5229  072D  00A8               	movwf	??___ftmul+2
  5230  072E  3010               	movlw	16
  5231  072F                     u285_25:	
  5232  072F  36A8               	lsrf	??___ftmul+2,f
  5233  0730  0CA7               	rrf	??___ftmul+1,f
  5234  0731  0CA6               	rrf	??___ftmul,f
  5235  0732  0B89               	decfsz	9,f
  5236  0733  2F2F               	goto	u285_25
  5237  0734  0826               	movf	??___ftmul,w
  5238  0735  00A9               	movwf	??___ftmul+3
  5239  0736  0829               	movf	??___ftmul+3,w
  5240  0737  00AF               	movwf	___ftmul@sign
  5241  0738  0823               	movf	___ftmul@f2,w
  5242  0739  00A6               	movwf	??___ftmul
  5243  073A  0824               	movf	___ftmul@f2+1,w
  5244  073B  00A7               	movwf	??___ftmul+1
  5245  073C  0825               	movf	___ftmul@f2+2,w
  5246  073D  00A8               	movwf	??___ftmul+2
  5247  073E  3010               	movlw	16
  5248  073F                     u286_25:	
  5249  073F  36A8               	lsrf	??___ftmul+2,f
  5250  0740  0CA7               	rrf	??___ftmul+1,f
  5251  0741  0CA6               	rrf	??___ftmul,f
  5252  0742  0B89               	decfsz	9,f
  5253  0743  2F3F               	goto	u286_25
  5254  0744  0826               	movf	??___ftmul,w
  5255  0745  00A9               	movwf	??___ftmul+3
  5256  0746  0829               	movf	??___ftmul+3,w
  5257  0747  06AF               	xorwf	___ftmul@sign,f
  5258  0748  3080               	movlw	128
  5259  0749  00A6               	movwf	??___ftmul
  5260  074A  0826               	movf	??___ftmul,w
  5261  074B  05AF               	andwf	___ftmul@sign,f
  5262  074C  17A1               	bsf	___ftmul@f1+1,7
  5263  074D  17A4               	bsf	___ftmul@f2+1,7
  5264  074E  30FF               	movlw	255
  5265  074F  05A3               	andwf	___ftmul@f2,f
  5266  0750  30FF               	movlw	255
  5267  0751  05A4               	andwf	___ftmul@f2+1,f
  5268  0752  3000               	movlw	0
  5269  0753  05A5               	andwf	___ftmul@f2+2,f
  5270  0754  3000               	movlw	0
  5271  0755  00AB               	movwf	___ftmul@f3_as_product
  5272  0756  3000               	movlw	0
  5273  0757  00AC               	movwf	___ftmul@f3_as_product+1
  5274  0758  3000               	movlw	0
  5275  0759  00AD               	movwf	___ftmul@f3_as_product+2
  5276  075A  3007               	movlw	7
  5277  075B  00A6               	movwf	??___ftmul
  5278  075C  0826               	movf	??___ftmul,w
  5279  075D  00AE               	movwf	___ftmul@cntr
  5280  075E                     i1l2614:	
  5281  075E  1C20               	btfss	___ftmul@f1,0
  5282  075F  2F66               	goto	i1l2618
  5283  0760  0823               	movf	___ftmul@f2,w
  5284  0761  07AB               	addwf	___ftmul@f3_as_product,f
  5285  0762  0824               	movf	___ftmul@f2+1,w
  5286  0763  3DAC               	addwfc	___ftmul@f3_as_product+1,f
  5287  0764  0825               	movf	___ftmul@f2+2,w
  5288  0765  3DAD               	addwfc	___ftmul@f3_as_product+2,f
  5289  0766                     i1l2618:	
  5290  0766  3001               	movlw	1
  5291  0767                     u288_25:	
  5292  0767  36A2               	lsrf	___ftmul@f1+2,f
  5293  0768  0CA1               	rrf	___ftmul@f1+1,f
  5294  0769  0CA0               	rrf	___ftmul@f1,f
  5295  076A  0B89               	decfsz	9,f
  5296  076B  2F67               	goto	u288_25
  5297  076C  3001               	movlw	1
  5298  076D                     u289_25:	
  5299  076D  35A3               	lslf	___ftmul@f2,f
  5300  076E  0DA4               	rlf	___ftmul@f2+1,f
  5301  076F  0DA5               	rlf	___ftmul@f2+2,f
  5302  0770  0B89               	decfsz	9,f
  5303  0771  2F6D               	goto	u289_25
  5304  0772  3001               	movlw	1
  5305  0773  02AE               	subwf	___ftmul@cntr,f
  5306  0774  1D03               	btfss	3,2
  5307  0775  2F5E               	goto	i1l2614
  5308  0776  3009               	movlw	9
  5309  0777  00A6               	movwf	??___ftmul
  5310  0778  0826               	movf	??___ftmul,w
  5311  0779  00AE               	movwf	___ftmul@cntr
  5312  077A                     i1l2626:	
  5313  077A  1C20               	btfss	___ftmul@f1,0
  5314  077B  2F82               	goto	i1l2630
  5315  077C  0823               	movf	___ftmul@f2,w
  5316  077D  07AB               	addwf	___ftmul@f3_as_product,f
  5317  077E  0824               	movf	___ftmul@f2+1,w
  5318  077F  3DAC               	addwfc	___ftmul@f3_as_product+1,f
  5319  0780  0825               	movf	___ftmul@f2+2,w
  5320  0781  3DAD               	addwfc	___ftmul@f3_as_product+2,f
  5321  0782                     i1l2630:	
  5322  0782  3001               	movlw	1
  5323  0783                     u292_25:	
  5324  0783  36A2               	lsrf	___ftmul@f1+2,f
  5325  0784  0CA1               	rrf	___ftmul@f1+1,f
  5326  0785  0CA0               	rrf	___ftmul@f1,f
  5327  0786  0B89               	decfsz	9,f
  5328  0787  2F83               	goto	u292_25
  5329  0788  3001               	movlw	1
  5330  0789                     u293_25:	
  5331  0789  36AD               	lsrf	___ftmul@f3_as_product+2,f
  5332  078A  0CAC               	rrf	___ftmul@f3_as_product+1,f
  5333  078B  0CAB               	rrf	___ftmul@f3_as_product,f
  5334  078C  0B89               	decfsz	9,f
  5335  078D  2F89               	goto	u293_25
  5336  078E  3001               	movlw	1
  5337  078F  02AE               	subwf	___ftmul@cntr,f
  5338  0790  1D03               	btfss	3,2
  5339  0791  2F7A               	goto	i1l2626
  5340  0792  082B               	movf	___ftmul@f3_as_product,w
  5341  0793  00F0               	movwf	___ftpack@arg
  5342  0794  082C               	movf	___ftmul@f3_as_product+1,w
  5343  0795  00F1               	movwf	___ftpack@arg+1
  5344  0796  082D               	movf	___ftmul@f3_as_product+2,w
  5345  0797  00F2               	movwf	___ftpack@arg+2
  5346  0798  082A               	movf	___ftmul@exp,w
  5347  0799  00A6               	movwf	??___ftmul
  5348  079A  0826               	movf	??___ftmul,w
  5349  079B  00F3               	movwf	___ftpack@exp
  5350  079C  082F               	movf	___ftmul@sign,w
  5351  079D  00A7               	movwf	??___ftmul+1
  5352  079E  0827               	movf	??___ftmul+1,w
  5353  079F  00F4               	movwf	___ftpack@sign
  5354  07A0  318E  2693         	fcall	___ftpack
  5355  07A2  0870               	movf	?___ftpack,w
  5356  07A3  0020               	movlb	0	; select bank0
  5357  07A4  00A0               	movwf	?___ftmul
  5358  07A5  0871               	movf	?___ftpack+1,w
  5359  07A6  00A1               	movwf	?___ftmul+1
  5360  07A7  0872               	movf	?___ftpack+2,w
  5361  07A8  00A2               	movwf	?___ftmul+2
  5362  07A9  0008               	return
  5363  07AA                     __end_of___ftmul:	
  5364                           
  5365                           	psect	text23
  5366  0600                     __ptext23:	
  5367 ;; *************** function ___ftadd *****************
  5368 ;; Defined at:
  5369 ;;		line 86 in file "C:\Program Files (x86)\Microchip\xc8\v1.45\sources\common\ftadd.c"
  5370 ;; Parameters:    Size  Location     Type
  5371 ;;  f1              3   19[BANK0 ] float 
  5372 ;;  f2              3   22[BANK0 ] float 
  5373 ;; Auto vars:     Size  Location     Type
  5374 ;;  exp1            1   31[BANK0 ] unsigned char 
  5375 ;;  exp2            1   30[BANK0 ] unsigned char 
  5376 ;;  sign            1   29[BANK0 ] unsigned char 
  5377 ;; Return value:  Size  Location     Type
  5378 ;;                  3   19[BANK0 ] float 
  5379 ;; Registers used:
  5380 ;;		wreg, status,2, status,0, pclath, cstack
  5381 ;; Tracked objects:
  5382 ;;		On entry : 0/0
  5383 ;;		On exit  : 0/0
  5384 ;;		Unchanged: 0/0
  5385 ;; Data sizes:     COMMON   BANK0   BANK1   BANK2   BANK3   BANK4
  5386 ;;      Params:         0       6       0       0       0       0
  5387 ;;      Locals:         0       3       0       0       0       0
  5388 ;;      Temps:          0       4       0       0       0       0
  5389 ;;      Totals:         0      13       0       0       0       0
  5390 ;;Total ram usage:       13 bytes
  5391 ;; Hardware stack levels used:    1
  5392 ;; Hardware stack levels required when called:    1
  5393 ;; This function calls:
  5394 ;;		___ftpack
  5395 ;; This function is called by:
  5396 ;;		_InterFunction
  5397 ;; This function uses a non-reentrant model
  5398 ;;
  5399                           
  5400                           
  5401                           ;psect for function ___ftadd
  5402  0600                     ___ftadd:	
  5403                           
  5404                           ;incstack = 0
  5405                           ; Regs used in ___ftadd: [wreg+status,2+status,0+pclath+cstack]
  5406  0600  0020               	movlb	0	; select bank0
  5407  0601  0833               	movf	___ftadd@f1,w
  5408  0602  00B9               	movwf	??___ftadd
  5409  0603  0834               	movf	___ftadd@f1+1,w
  5410  0604  00BA               	movwf	??___ftadd+1
  5411  0605  0835               	movf	___ftadd@f1+2,w
  5412  0606  00BB               	movwf	??___ftadd+2
  5413  0607  1003               	clrc
  5414  0608  0D3A               	rlf	??___ftadd+1,w
  5415  0609  0D3B               	rlf	??___ftadd+2,w
  5416  060A  00BC               	movwf	??___ftadd+3
  5417  060B  083C               	movf	??___ftadd+3,w
  5418  060C  00BF               	movwf	___ftadd@exp1
  5419  060D  0836               	movf	___ftadd@f2,w
  5420  060E  00B9               	movwf	??___ftadd
  5421  060F  0837               	movf	___ftadd@f2+1,w
  5422  0610  00BA               	movwf	??___ftadd+1
  5423  0611  0838               	movf	___ftadd@f2+2,w
  5424  0612  00BB               	movwf	??___ftadd+2
  5425  0613  1003               	clrc
  5426  0614  0D3A               	rlf	??___ftadd+1,w
  5427  0615  0D3B               	rlf	??___ftadd+2,w
  5428  0616  00BC               	movwf	??___ftadd+3
  5429  0617  083C               	movf	??___ftadd+3,w
  5430  0618  00BE               	movwf	___ftadd@exp2
  5431  0619  083F               	movf	___ftadd@exp1,w
  5432  061A  1903               	btfsc	3,2
  5433  061B  2E28               	goto	i1l2526
  5434  061C  083E               	movf	___ftadd@exp2,w
  5435  061D  023F               	subwf	___ftadd@exp1,w
  5436  061E  1803               	skipnc
  5437  061F  2E2F               	goto	i1l2530
  5438  0620  033F               	decf	___ftadd@exp1,w
  5439  0621  3AFF               	xorlw	255
  5440  0622  073E               	addwf	___ftadd@exp2,w
  5441  0623  00B9               	movwf	??___ftadd
  5442  0624  3019               	movlw	25
  5443  0625  0239               	subwf	??___ftadd,w
  5444  0626  1C03               	skipc
  5445  0627  2E2F               	goto	i1l2530
  5446  0628                     i1l2526:	
  5447  0628  0836               	movf	___ftadd@f2,w
  5448  0629  00B3               	movwf	?___ftadd
  5449  062A  0837               	movf	___ftadd@f2+1,w
  5450  062B  00B4               	movwf	?___ftadd+1
  5451  062C  0838               	movf	___ftadd@f2+2,w
  5452  062D  00B5               	movwf	?___ftadd+2
  5453  062E  0008               	return
  5454  062F                     i1l2530:	
  5455  062F  083E               	movf	___ftadd@exp2,w
  5456  0630  1903               	btfsc	3,2
  5457  0631  0008               	return
  5458  0632  083F               	movf	___ftadd@exp1,w
  5459  0633  023E               	subwf	___ftadd@exp2,w
  5460  0634  1803               	skipnc
  5461  0635  2E3E               	goto	i1l2536
  5462  0636  033E               	decf	___ftadd@exp2,w
  5463  0637  3AFF               	xorlw	255
  5464  0638  073F               	addwf	___ftadd@exp1,w
  5465  0639  00B9               	movwf	??___ftadd
  5466  063A  3019               	movlw	25
  5467  063B  0239               	subwf	??___ftadd,w
  5468  063C  1803               	btfsc	3,0
  5469  063D  0008               	return
  5470  063E                     i1l2536:	
  5471  063E  3006               	movlw	6
  5472  063F  00B9               	movwf	??___ftadd
  5473  0640  0839               	movf	??___ftadd,w
  5474  0641  00BD               	movwf	___ftadd@sign
  5475  0642  1BB5               	btfsc	___ftadd@f1+2,7
  5476  0643  17BD               	bsf	___ftadd@sign,7
  5477  0644  1BB8               	btfsc	___ftadd@f2+2,7
  5478  0645  173D               	bsf	___ftadd@sign,6
  5479  0646  17B4               	bsf	___ftadd@f1+1,7
  5480  0647  30FF               	movlw	255
  5481  0648  05B3               	andwf	___ftadd@f1,f
  5482  0649  30FF               	movlw	255
  5483  064A  05B4               	andwf	___ftadd@f1+1,f
  5484  064B  3000               	movlw	0
  5485  064C  05B5               	andwf	___ftadd@f1+2,f
  5486  064D  17B7               	bsf	___ftadd@f2+1,7
  5487  064E  30FF               	movlw	255
  5488  064F  05B6               	andwf	___ftadd@f2,f
  5489  0650  30FF               	movlw	255
  5490  0651  05B7               	andwf	___ftadd@f2+1,f
  5491  0652  3000               	movlw	0
  5492  0653  05B8               	andwf	___ftadd@f2+2,f
  5493  0654  083E               	movf	___ftadd@exp2,w
  5494  0655  023F               	subwf	___ftadd@exp1,w
  5495  0656  1803               	skipnc
  5496  0657  2E7A               	goto	i1l2558
  5497  0658                     i1l2548:	
  5498  0658  3001               	movlw	1
  5499  0659                     u269_25:	
  5500  0659  35B6               	lslf	___ftadd@f2,f
  5501  065A  0DB7               	rlf	___ftadd@f2+1,f
  5502  065B  0DB8               	rlf	___ftadd@f2+2,f
  5503  065C  0B89               	decfsz	9,f
  5504  065D  2E59               	goto	u269_25
  5505  065E  3001               	movlw	1
  5506  065F  02BE               	subwf	___ftadd@exp2,f
  5507  0660  083E               	movf	___ftadd@exp2,w
  5508  0661  063F               	xorwf	___ftadd@exp1,w
  5509  0662  1903               	skipnz
  5510  0663  2E75               	goto	i1l2556
  5511  0664  3001               	movlw	1
  5512  0665  02BD               	subwf	___ftadd@sign,f
  5513  0666  083D               	movf	___ftadd@sign,w
  5514  0667  3907               	andlw	7
  5515  0668  1903               	btfsc	3,2
  5516  0669  2E75               	goto	i1l2556
  5517  066A  2E58               	goto	i1l2548
  5518  066B                     i1l2554:	
  5519  066B  3001               	movlw	1
  5520  066C                     u272_25:	
  5521  066C  36B5               	lsrf	___ftadd@f1+2,f
  5522  066D  0CB4               	rrf	___ftadd@f1+1,f
  5523  066E  0CB3               	rrf	___ftadd@f1,f
  5524  066F  0B89               	decfsz	9,f
  5525  0670  2E6C               	goto	u272_25
  5526  0671  3001               	movlw	1
  5527  0672  00B9               	movwf	??___ftadd
  5528  0673  0839               	movf	??___ftadd,w
  5529  0674  07BF               	addwf	___ftadd@exp1,f
  5530  0675                     i1l2556:	
  5531  0675  083F               	movf	___ftadd@exp1,w
  5532  0676  063E               	xorwf	___ftadd@exp2,w
  5533  0677  1903               	btfsc	3,2
  5534  0678  2E9F               	goto	i1l725
  5535  0679  2E6B               	goto	i1l2554
  5536  067A                     i1l2558:	
  5537  067A  083F               	movf	___ftadd@exp1,w
  5538  067B  023E               	subwf	___ftadd@exp2,w
  5539  067C  1803               	skipnc
  5540  067D  2E9F               	goto	i1l725
  5541  067E                     i1l2560:	
  5542  067E  3001               	movlw	1
  5543  067F                     u275_25:	
  5544  067F  35B3               	lslf	___ftadd@f1,f
  5545  0680  0DB4               	rlf	___ftadd@f1+1,f
  5546  0681  0DB5               	rlf	___ftadd@f1+2,f
  5547  0682  0B89               	decfsz	9,f
  5548  0683  2E7F               	goto	u275_25
  5549  0684  3001               	movlw	1
  5550  0685  02BF               	subwf	___ftadd@exp1,f
  5551  0686  083E               	movf	___ftadd@exp2,w
  5552  0687  063F               	xorwf	___ftadd@exp1,w
  5553  0688  1903               	skipnz
  5554  0689  2E9B               	goto	i1l2568
  5555  068A  3001               	movlw	1
  5556  068B  02BD               	subwf	___ftadd@sign,f
  5557  068C  083D               	movf	___ftadd@sign,w
  5558  068D  3907               	andlw	7
  5559  068E  1903               	btfsc	3,2
  5560  068F  2E9B               	goto	i1l2568
  5561  0690  2E7E               	goto	i1l2560
  5562  0691                     i1l2566:	
  5563  0691  3001               	movlw	1
  5564  0692                     u278_25:	
  5565  0692  36B8               	lsrf	___ftadd@f2+2,f
  5566  0693  0CB7               	rrf	___ftadd@f2+1,f
  5567  0694  0CB6               	rrf	___ftadd@f2,f
  5568  0695  0B89               	decfsz	9,f
  5569  0696  2E92               	goto	u278_25
  5570  0697  3001               	movlw	1
  5571  0698  00B9               	movwf	??___ftadd
  5572  0699  0839               	movf	??___ftadd,w
  5573  069A  07BE               	addwf	___ftadd@exp2,f
  5574  069B                     i1l2568:	
  5575  069B  083F               	movf	___ftadd@exp1,w
  5576  069C  063E               	xorwf	___ftadd@exp2,w
  5577  069D  1D03               	skipz
  5578  069E  2E91               	goto	i1l2566
  5579  069F                     i1l725:	
  5580  069F  1FBD               	btfss	___ftadd@sign,7
  5581  06A0  2EB1               	goto	i1l2572
  5582  06A1  30FF               	movlw	255
  5583  06A2  06B3               	xorwf	___ftadd@f1,f
  5584  06A3  30FF               	movlw	255
  5585  06A4  06B4               	xorwf	___ftadd@f1+1,f
  5586  06A5  30FF               	movlw	255
  5587  06A6  06B5               	xorwf	___ftadd@f1+2,f
  5588  06A7  3001               	movlw	1
  5589  06A8  07B3               	addwf	___ftadd@f1,f
  5590  06A9  3000               	movlw	0
  5591  06AA  1803               	skipnc
  5592  06AB  3001               	movlw	1
  5593  06AC  07B4               	addwf	___ftadd@f1+1,f
  5594  06AD  3000               	movlw	0
  5595  06AE  1803               	skipnc
  5596  06AF  3001               	movlw	1
  5597  06B0  07B5               	addwf	___ftadd@f1+2,f
  5598  06B1                     i1l2572:	
  5599  06B1  1F3D               	btfss	___ftadd@sign,6
  5600  06B2  2EC3               	goto	i1l2576
  5601  06B3  30FF               	movlw	255
  5602  06B4  06B6               	xorwf	___ftadd@f2,f
  5603  06B5  30FF               	movlw	255
  5604  06B6  06B7               	xorwf	___ftadd@f2+1,f
  5605  06B7  30FF               	movlw	255
  5606  06B8  06B8               	xorwf	___ftadd@f2+2,f
  5607  06B9  3001               	movlw	1
  5608  06BA  07B6               	addwf	___ftadd@f2,f
  5609  06BB  3000               	movlw	0
  5610  06BC  1803               	skipnc
  5611  06BD  3001               	movlw	1
  5612  06BE  07B7               	addwf	___ftadd@f2+1,f
  5613  06BF  3000               	movlw	0
  5614  06C0  1803               	skipnc
  5615  06C1  3001               	movlw	1
  5616  06C2  07B8               	addwf	___ftadd@f2+2,f
  5617  06C3                     i1l2576:	
  5618  06C3  01BD               	clrf	___ftadd@sign
  5619  06C4  0833               	movf	___ftadd@f1,w
  5620  06C5  07B6               	addwf	___ftadd@f2,f
  5621  06C6  0834               	movf	___ftadd@f1+1,w
  5622  06C7  3DB7               	addwfc	___ftadd@f2+1,f
  5623  06C8  0835               	movf	___ftadd@f1+2,w
  5624  06C9  3DB8               	addwfc	___ftadd@f2+2,f
  5625  06CA  1FB8               	btfss	___ftadd@f2+2,7
  5626  06CB  2EDE               	goto	i1l2586
  5627  06CC  30FF               	movlw	255
  5628  06CD  06B6               	xorwf	___ftadd@f2,f
  5629  06CE  30FF               	movlw	255
  5630  06CF  06B7               	xorwf	___ftadd@f2+1,f
  5631  06D0  30FF               	movlw	255
  5632  06D1  06B8               	xorwf	___ftadd@f2+2,f
  5633  06D2  3001               	movlw	1
  5634  06D3  07B6               	addwf	___ftadd@f2,f
  5635  06D4  3000               	movlw	0
  5636  06D5  1803               	skipnc
  5637  06D6  3001               	movlw	1
  5638  06D7  07B7               	addwf	___ftadd@f2+1,f
  5639  06D8  3000               	movlw	0
  5640  06D9  1803               	skipnc
  5641  06DA  3001               	movlw	1
  5642  06DB  07B8               	addwf	___ftadd@f2+2,f
  5643  06DC  01BD               	clrf	___ftadd@sign
  5644  06DD  0ABD               	incf	___ftadd@sign,f
  5645  06DE                     i1l2586:	
  5646  06DE  0836               	movf	___ftadd@f2,w
  5647  06DF  00F0               	movwf	___ftpack@arg
  5648  06E0  0837               	movf	___ftadd@f2+1,w
  5649  06E1  00F1               	movwf	___ftpack@arg+1
  5650  06E2  0838               	movf	___ftadd@f2+2,w
  5651  06E3  00F2               	movwf	___ftpack@arg+2
  5652  06E4  083F               	movf	___ftadd@exp1,w
  5653  06E5  00B9               	movwf	??___ftadd
  5654  06E6  0839               	movf	??___ftadd,w
  5655  06E7  00F3               	movwf	___ftpack@exp
  5656  06E8  083D               	movf	___ftadd@sign,w
  5657  06E9  00BA               	movwf	??___ftadd+1
  5658  06EA  083A               	movf	??___ftadd+1,w
  5659  06EB  00F4               	movwf	___ftpack@sign
  5660  06EC  318E  2693         	fcall	___ftpack
  5661  06EE  0870               	movf	?___ftpack,w
  5662  06EF  0020               	movlb	0	; select bank0
  5663  06F0  00B3               	movwf	?___ftadd
  5664  06F1  0871               	movf	?___ftpack+1,w
  5665  06F2  00B4               	movwf	?___ftadd+1
  5666  06F3  0872               	movf	?___ftpack+2,w
  5667  06F4  00B5               	movwf	?___ftadd+2
  5668  06F5  0008               	return
  5669  06F6                     __end_of___ftadd:	
  5670                           
  5671                           	psect	text24
  5672  0E93                     __ptext24:	
  5673 ;; *************** function ___ftpack *****************
  5674 ;; Defined at:
  5675 ;;		line 62 in file "C:\Program Files (x86)\Microchip\xc8\v1.45\sources\common\float.c"
  5676 ;; Parameters:    Size  Location     Type
  5677 ;;  arg             3    0[COMMON] unsigned um
  5678 ;;  exp             1    3[COMMON] unsigned char 
  5679 ;;  sign            1    4[COMMON] unsigned char 
  5680 ;; Auto vars:     Size  Location     Type
  5681 ;;		None
  5682 ;; Return value:  Size  Location     Type
  5683 ;;                  3    0[COMMON] float 
  5684 ;; Registers used:
  5685 ;;		wreg, status,2, status,0
  5686 ;; Tracked objects:
  5687 ;;		On entry : 0/0
  5688 ;;		On exit  : 0/0
  5689 ;;		Unchanged: 0/0
  5690 ;; Data sizes:     COMMON   BANK0   BANK1   BANK2   BANK3   BANK4
  5691 ;;      Params:         5       0       0       0       0       0
  5692 ;;      Locals:         0       0       0       0       0       0
  5693 ;;      Temps:          3       0       0       0       0       0
  5694 ;;      Totals:         8       0       0       0       0       0
  5695 ;;Total ram usage:        8 bytes
  5696 ;; Hardware stack levels used:    1
  5697 ;; This function calls:
  5698 ;;		Nothing
  5699 ;; This function is called by:
  5700 ;;		___ftadd
  5701 ;;		___ftmul
  5702 ;;		___lwtoft
  5703 ;; This function uses a non-reentrant model
  5704 ;;
  5705                           
  5706                           
  5707                           ;psect for function ___ftpack
  5708  0E93                     ___ftpack:	
  5709                           
  5710                           ;incstack = 0
  5711                           ; Regs used in ___ftpack: [wreg+status,2+status,0]
  5712  0E93  0873               	movf	___ftpack@exp,w
  5713  0E94  1903               	btfsc	3,2
  5714  0E95  2E9B               	goto	i1l2196
  5715  0E96  0872               	movf	___ftpack@arg+2,w
  5716  0E97  0471               	iorwf	___ftpack@arg+1,w
  5717  0E98  0470               	iorwf	___ftpack@arg,w
  5718  0E99  1D03               	skipz
  5719  0E9A  2EAC               	goto	i1l2202
  5720  0E9B                     i1l2196:	
  5721  0E9B  3000               	movlw	0
  5722  0E9C  00F0               	movwf	?___ftpack
  5723  0E9D  3000               	movlw	0
  5724  0E9E  00F1               	movwf	?___ftpack+1
  5725  0E9F  3000               	movlw	0
  5726  0EA0  00F2               	movwf	?___ftpack+2
  5727  0EA1  0008               	return
  5728  0EA2                     i1l2200:	
  5729  0EA2  3001               	movlw	1
  5730  0EA3  00F5               	movwf	??___ftpack
  5731  0EA4  0875               	movf	??___ftpack,w
  5732  0EA5  07F3               	addwf	___ftpack@exp,f
  5733  0EA6  3001               	movlw	1
  5734  0EA7                     u207_25:	
  5735  0EA7  36F2               	lsrf	___ftpack@arg+2,f
  5736  0EA8  0CF1               	rrf	___ftpack@arg+1,f
  5737  0EA9  0CF0               	rrf	___ftpack@arg,f
  5738  0EAA  0B89               	decfsz	9,f
  5739  0EAB  2EA7               	goto	u207_25
  5740  0EAC                     i1l2202:	
  5741  0EAC  30FE               	movlw	254
  5742  0EAD  0572               	andwf	___ftpack@arg+2,w
  5743  0EAE  1903               	btfsc	3,2
  5744  0EAF  2EC5               	goto	i1l694
  5745  0EB0  2EA2               	goto	i1l2200
  5746  0EB1                     i1l2204:	
  5747  0EB1  3001               	movlw	1
  5748  0EB2  00F5               	movwf	??___ftpack
  5749  0EB3  0875               	movf	??___ftpack,w
  5750  0EB4  07F3               	addwf	___ftpack@exp,f
  5751  0EB5  3001               	movlw	1
  5752  0EB6  07F0               	addwf	___ftpack@arg,f
  5753  0EB7  3000               	movlw	0
  5754  0EB8  1803               	skipnc
  5755  0EB9  3001               	movlw	1
  5756  0EBA  07F1               	addwf	___ftpack@arg+1,f
  5757  0EBB  3000               	movlw	0
  5758  0EBC  1803               	skipnc
  5759  0EBD  3001               	movlw	1
  5760  0EBE  07F2               	addwf	___ftpack@arg+2,f
  5761  0EBF  3001               	movlw	1
  5762  0EC0                     u209_25:	
  5763  0EC0  36F2               	lsrf	___ftpack@arg+2,f
  5764  0EC1  0CF1               	rrf	___ftpack@arg+1,f
  5765  0EC2  0CF0               	rrf	___ftpack@arg,f
  5766  0EC3  0B89               	decfsz	9,f
  5767  0EC4  2EC0               	goto	u209_25
  5768  0EC5                     i1l694:	
  5769  0EC5  30FF               	movlw	255
  5770  0EC6  0572               	andwf	___ftpack@arg+2,w
  5771  0EC7  1903               	btfsc	3,2
  5772  0EC8  2ED2               	goto	i1l2212
  5773  0EC9  2EB1               	goto	i1l2204
  5774  0ECA                     i1l2210:	
  5775  0ECA  3001               	movlw	1
  5776  0ECB  02F3               	subwf	___ftpack@exp,f
  5777  0ECC  3001               	movlw	1
  5778  0ECD                     u211_25:	
  5779  0ECD  35F0               	lslf	___ftpack@arg,f
  5780  0ECE  0DF1               	rlf	___ftpack@arg+1,f
  5781  0ECF  0DF2               	rlf	___ftpack@arg+2,f
  5782  0ED0  0B89               	decfsz	9,f
  5783  0ED1  2ECD               	goto	u211_25
  5784  0ED2                     i1l2212:	
  5785  0ED2  1BF1               	btfsc	___ftpack@arg+1,7
  5786  0ED3  2ED8               	goto	i1l701
  5787  0ED4  3002               	movlw	2
  5788  0ED5  0273               	subwf	___ftpack@exp,w
  5789  0ED6  1803               	skipnc
  5790  0ED7  2ECA               	goto	i1l2210
  5791  0ED8                     i1l701:	
  5792  0ED8  1873               	btfsc	___ftpack@exp,0
  5793  0ED9  2EE0               	goto	i1l702
  5794  0EDA  30FF               	movlw	255
  5795  0EDB  05F0               	andwf	___ftpack@arg,f
  5796  0EDC  307F               	movlw	127
  5797  0EDD  05F1               	andwf	___ftpack@arg+1,f
  5798  0EDE  30FF               	movlw	255
  5799  0EDF  05F2               	andwf	___ftpack@arg+2,f
  5800  0EE0                     i1l702:	
  5801  0EE0  1003               	clrc
  5802  0EE1  0CF3               	rrf	___ftpack@exp,f
  5803  0EE2  0873               	movf	___ftpack@exp,w
  5804  0EE3  00F5               	movwf	??___ftpack
  5805  0EE4  01F6               	clrf	??___ftpack+1
  5806  0EE5  01F7               	clrf	??___ftpack+2
  5807  0EE6  3010               	movlw	16
  5808  0EE7                     u215_25:	
  5809  0EE7  35F5               	lslf	??___ftpack,f
  5810  0EE8  0DF6               	rlf	??___ftpack+1,f
  5811  0EE9  0DF7               	rlf	??___ftpack+2,f
  5812  0EEA  0B89               	decfsz	9,f
  5813  0EEB  2EE7               	goto	u215_25
  5814  0EEC  0875               	movf	??___ftpack,w
  5815  0EED  04F0               	iorwf	___ftpack@arg,f
  5816  0EEE  0876               	movf	??___ftpack+1,w
  5817  0EEF  04F1               	iorwf	___ftpack@arg+1,f
  5818  0EF0  0877               	movf	??___ftpack+2,w
  5819  0EF1  04F2               	iorwf	___ftpack@arg+2,f
  5820  0EF2  0874               	movf	___ftpack@sign,w
  5821  0EF3  1903               	btfsc	3,2
  5822  0EF4  0008               	return
  5823  0EF5  17F2               	bsf	___ftpack@arg+2,7
  5824  0EF6  0008               	return
  5825  0EF7                     __end_of___ftpack:	
  5826                           
  5827                           	psect	text25
  5828  0D14                     __ptext25:	
  5829 ;; *************** function _InterI2C *****************
  5830 ;; Defined at:
  5831 ;;		line 55 in file "skI2Clib.c"
  5832 ;; Parameters:    Size  Location     Type
  5833 ;;		None
  5834 ;; Auto vars:     Size  Location     Type
  5835 ;;		None
  5836 ;; Return value:  Size  Location     Type
  5837 ;;                  1    wreg      void 
  5838 ;; Registers used:
  5839 ;;		wreg, status,2, status,0
  5840 ;; Tracked objects:
  5841 ;;		On entry : 0/0
  5842 ;;		On exit  : 0/0
  5843 ;;		Unchanged: 0/0
  5844 ;; Data sizes:     COMMON   BANK0   BANK1   BANK2   BANK3   BANK4
  5845 ;;      Params:         0       0       0       0       0       0
  5846 ;;      Locals:         0       0       0       0       0       0
  5847 ;;      Temps:          0       0       0       0       0       0
  5848 ;;      Totals:         0       0       0       0       0       0
  5849 ;;Total ram usage:        0 bytes
  5850 ;; Hardware stack levels used:    1
  5851 ;; This function calls:
  5852 ;;		Nothing
  5853 ;; This function is called by:
  5854 ;;		_InterFunction
  5855 ;; This function uses a non-reentrant model
  5856 ;;
  5857                           
  5858                           
  5859                           ;psect for function _InterI2C
  5860  0D14                     _InterI2C:	
  5861                           
  5862                           ;skI2Clib.c: 57: if (SSP1IF == 1) {
  5863                           
  5864                           ;incstack = 0
  5865                           ; Regs used in _InterI2C: [wreg+status,2+status,0]
  5866  0D14  0020               	movlb	0	; select bank0
  5867  0D15  1D91               	btfss	17,3	;volatile
  5868  0D16  2D1E               	goto	i1l2336
  5869                           
  5870                           ;skI2Clib.c: 58: if (AckCheck == 1) AckCheck = 0 ;
  5871  0D17  0357               	decf	_AckCheck,w
  5872  0D18  0458               	iorwf	_AckCheck+1,w
  5873  0D19  1D03               	btfss	3,2
  5874  0D1A  2D1D               	goto	i1l2334
  5875  0D1B  01D7               	clrf	_AckCheck
  5876  0D1C  01D8               	clrf	_AckCheck+1
  5877  0D1D                     i1l2334:	
  5878                           
  5879                           ;skI2Clib.c: 59: SSP1IF = 0 ;
  5880  0D1D  1191               	bcf	17,3	;volatile
  5881  0D1E                     i1l2336:	
  5882                           
  5883                           ;skI2Clib.c: 60: }
  5884                           ;skI2Clib.c: 61: if (BCL1IF == 1) {
  5885  0D1E  1D92               	btfss	18,3	;volatile
  5886  0D1F  0008               	return
  5887                           
  5888                           ;skI2Clib.c: 62: CollisionCheck = 1 ;
  5889  0D20  3001               	movlw	1
  5890  0D21  0021               	movlb	1	; select bank1
  5891  0D22  00E9               	movwf	_CollisionCheck^(0+128)
  5892  0D23  3000               	movlw	0
  5893  0D24  00EA               	movwf	(_CollisionCheck^(0+128)+1)
  5894                           
  5895                           ;skI2Clib.c: 63: BCL1IF = 0 ;
  5896  0D25  0020               	movlb	0	; select bank0
  5897  0D26  1192               	bcf	18,3	;volatile
  5898  0D27  0008               	return
  5899  0D28                     __end_of_InterI2C:	
  5900  007E                     btemp	set	126	;btemp
  5901  007E                     int$flags	set	126
  5902  007E                     wtemp0	set	126


Data Sizes:
    Strings     47
    Constant    40
    Data        4
    BSS         18
    Persistent  6
    Stack       0

Auto Spaces:
    Space          Size  Autos    Used
    COMMON           14     12      14
    BANK0            80     51      71
    BANK1            80     73      79
    BANK2            80      0       0
    BANK3            80      0       0
    BANK4            48      0       0

Pointer List with Targets:

    sprintf@f	PTR const unsigned char  size(2) Largest target is 9
		 -> STR_3(CODE[9]), 

    sprintf@sp	PTR unsigned char  size(1) Largest target is 8
		 -> main@lcd(BANK1[8]), 

    sprintf@ap	PTR void [1] size(1) Largest target is 2
		 -> ?_sprintf(BANK1[2]), 

    LCD_Puts@s	PTR const unsigned char  size(2) Largest target is 9
		 -> STR_6(CODE[6]), STR_5(CODE[8]), STR_4(CODE[9]), main@lcd(BANK1[8]), 
		 -> STR_2(CODE[8]), STR_1(CODE[7]), 


Critical Paths under _main in COMMON

    None.

Critical Paths under _InterFunction in COMMON

    _InterFunction->___lwtoft
    ___lwtoft->___ftpack
    ___fttol->___lwtoft
    ___ftneg->___lwtoft
    ___ftmul->___lwtoft
    ___ftadd->___lwtoft

Critical Paths under _main in BANK0

    None.

Critical Paths under _InterFunction in BANK0

    _InterFunction->___fttol
    ___fttol->___ftadd
    ___ftneg->___ftmul
    ___ftadd->___ftneg

Critical Paths under _main in BANK1

    _main->_sprintf
    _sprintf->___llmod
    ___llmod->___lldiv
    _LCD_SetCursor->_command
    _LCD_Puts->_I2C_Start
    _LCD_Init->_LCD_Clear
    _LCD_Clear->_command
    _command->_I2C_Start
    _I2C_Stop->_I2C_IdleCheck
    _I2C_Start->_I2C_IdleCheck
    _I2C_Send->_I2C_IdleCheck

Critical Paths under _InterFunction in BANK1

    None.

Critical Paths under _main in BANK2

    None.

Critical Paths under _InterFunction in BANK2

    None.

Critical Paths under _main in BANK3

    None.

Critical Paths under _InterFunction in BANK3

    None.

Critical Paths under _main in BANK4

    None.

Critical Paths under _InterFunction in BANK4

    None.

Call Graph Tables:

 ---------------------------------------------------------------------------------
 (Depth) Function   	        Calls       Base Space   Used Autos Params    Refs
 ---------------------------------------------------------------------------------
 (0) _main                                                23    23      0   11200
                                             50 BANK1     23    23      0
                     _InitI2C_Master
                          _LCD_Clear
                           _LCD_Init
                           _LCD_Puts
                      _LCD_SetCursor
                            _sprintf
 ---------------------------------------------------------------------------------
 (1) _sprintf                                             34    26      8    2374
                                             24 BANK1     26    18      8
                            ___lldiv
                            ___llmod
                             ___wmul
                            _isdigit
 ---------------------------------------------------------------------------------
 (2) _isdigit                                              2     2      0      68
                                              0 BANK1      2     2      0
 ---------------------------------------------------------------------------------
 (2) ___wmul                                               6     2      4     860
                                              0 BANK1      6     2      4
 ---------------------------------------------------------------------------------
 (2) ___llmod                                             10     2      8     287
                                             14 BANK1     10     2      8
                            ___lldiv (ARG)
 ---------------------------------------------------------------------------------
 (2) ___lldiv                                             14     6      8     290
                                              0 BANK1     14     6      8
 ---------------------------------------------------------------------------------
 (1) _LCD_SetCursor                                        8     4      4    2549
                                             11 BANK1      8     4      4
                            _command
 ---------------------------------------------------------------------------------
 (1) _LCD_Puts                                             5     3      2    1608
                                              8 BANK1      5     3      2
                           _I2C_Send
                          _I2C_Start
                           _I2C_Stop
                           _Wait27us
 ---------------------------------------------------------------------------------
 (1) _LCD_Init                                            15     7      8    3032
                                             12 BANK1     15     7      8
                          _LCD_Clear
                           _Wait10ms
                            _command
 ---------------------------------------------------------------------------------
 (2) _Wait10ms                                             3     1      2     150
                                              0 BANK1      3     1      2
 ---------------------------------------------------------------------------------
 (2) _LCD_Clear                                            1     1      0    1201
                                             11 BANK1      1     1      0
                            _command
 ---------------------------------------------------------------------------------
 (2) _command                                              3     3      0    1201
                                              8 BANK1      3     3      0
                           _I2C_Send
                          _I2C_Start
                           _I2C_Stop
                           _Wait27us
 ---------------------------------------------------------------------------------
 (3) _Wait27us                                             0     0      0       0
 ---------------------------------------------------------------------------------
 (3) _I2C_Stop                                             0     0      0      22
                      _I2C_IdleCheck
 ---------------------------------------------------------------------------------
 (3) _I2C_Start                                            6     2      4    1090
                                              2 BANK1      6     2      4
                      _I2C_IdleCheck
 ---------------------------------------------------------------------------------
 (3) _I2C_Send                                             1     1      0      44
                                              2 BANK1      1     1      0
                      _I2C_IdleCheck
 ---------------------------------------------------------------------------------
 (4) _I2C_IdleCheck                                        2     2      0      22
                                              0 BANK1      2     2      0
 ---------------------------------------------------------------------------------
 (1) _InitI2C_Master                                       2     0      2      86
                                              0 BANK1      2     0      2
 ---------------------------------------------------------------------------------
 Estimated maximum stack depth 4
 ---------------------------------------------------------------------------------
 (Depth) Function   	        Calls       Base Space   Used Autos Params    Refs
 ---------------------------------------------------------------------------------
 (6) _InterFunction                                        5     5      0    8576
                                             46 BANK0      5     5      0
                           _InterI2C
                            ___ftadd
                            ___ftmul
                            ___ftneg
                            ___fttol
                           ___lwtoft
 ---------------------------------------------------------------------------------
 (7) ___lwtoft                                             4     1      3    2181
                                              8 COMMON     4     1      3
                           ___ftpack
 ---------------------------------------------------------------------------------
 (7) ___fttol                                             14    10      4     380
                                             32 BANK0     14    10      4
                            ___ftadd (ARG)
                            ___ftmul (ARG)
                            ___ftneg (ARG)
                           ___lwtoft (ARG)
 ---------------------------------------------------------------------------------
 (7) ___ftneg                                              3     0      3     173
                                             16 BANK0      3     0      3
                            ___ftmul (ARG)
                           ___lwtoft (ARG)
 ---------------------------------------------------------------------------------
 (7) ___ftmul                                             16    10      6    2613
                                              0 BANK0     16    10      6
                           ___ftpack
                           ___lwtoft (ARG)
 ---------------------------------------------------------------------------------
 (7) ___ftadd                                             13     7      6    3229
                                             19 BANK0     13     7      6
                            ___ftmul (ARG)
                            ___ftneg (ARG)
                           ___ftpack
                           ___lwtoft (ARG)
 ---------------------------------------------------------------------------------
 (8) ___ftpack                                             8     3      5    2031
                                              0 COMMON     8     3      5
 ---------------------------------------------------------------------------------
 (7) _InterI2C                                             0     0      0       0
 ---------------------------------------------------------------------------------
 Estimated maximum stack depth 8
 ---------------------------------------------------------------------------------

 Call Graph Graphs:

 _main (ROOT)
   _InitI2C_Master
   _LCD_Clear
     _command
       _I2C_Send
         _I2C_IdleCheck
       _I2C_Start
         _I2C_IdleCheck
       _I2C_Stop
         _I2C_IdleCheck
       _Wait27us
   _LCD_Init
     _LCD_Clear
       _command
         _I2C_Send
           _I2C_IdleCheck
         _I2C_Start
           _I2C_IdleCheck
         _I2C_Stop
           _I2C_IdleCheck
         _Wait27us
     _Wait10ms
     _command
       _I2C_Send
         _I2C_IdleCheck
       _I2C_Start
         _I2C_IdleCheck
       _I2C_Stop
         _I2C_IdleCheck
       _Wait27us
   _LCD_Puts
     _I2C_Send
       _I2C_IdleCheck
     _I2C_Start
       _I2C_IdleCheck
     _I2C_Stop
       _I2C_IdleCheck
     _Wait27us
   _LCD_SetCursor
     _command
       _I2C_Send
         _I2C_IdleCheck
       _I2C_Start
         _I2C_IdleCheck
       _I2C_Stop
         _I2C_IdleCheck
       _Wait27us
   _sprintf
     ___lldiv
     ___llmod
       ___lldiv (ARG)
     ___wmul
     _isdigit

 _InterFunction (ROOT)
   _InterI2C
   ___ftadd
     ___ftmul (ARG)
       ___ftpack
       ___lwtoft (ARG)
         ___ftpack
     ___ftneg (ARG)
       ___ftmul (ARG)
         ___ftpack
         ___lwtoft (ARG)
           ___ftpack
       ___lwtoft (ARG)
         ___ftpack
     ___ftpack (ARG)
     ___lwtoft (ARG)
       ___ftpack
   ___ftmul
     ___ftpack
     ___lwtoft (ARG)
       ___ftpack
   ___ftneg
     ___ftmul (ARG)
       ___ftpack
       ___lwtoft (ARG)
         ___ftpack
     ___lwtoft (ARG)
       ___ftpack
   ___fttol
     ___ftadd (ARG)
       ___ftmul (ARG)
         ___ftpack
         ___lwtoft (ARG)
           ___ftpack
       ___ftneg (ARG)
         ___ftmul (ARG)
           ___ftpack
           ___lwtoft (ARG)
             ___ftpack
         ___lwtoft (ARG)
           ___ftpack
       ___ftpack (ARG)
       ___lwtoft (ARG)
         ___ftpack
     ___ftmul (ARG)
       ___ftpack
       ___lwtoft (ARG)
         ___ftpack
     ___ftneg (ARG)
       ___ftmul (ARG)
         ___ftpack
         ___lwtoft (ARG)
           ___ftpack
       ___lwtoft (ARG)
         ___ftpack
     ___lwtoft (ARG)
       ___ftpack
   ___lwtoft
     ___ftpack

 Address spaces:
Name               Size   Autos  Total    Cost      Usage
BIGRAM             170      0       0       0        0.0%
EEDATA             100      0       0       0        0.0%
NULL                 0      0       0       0        0.0%
CODE                 0      0       0       0        0.0%
BITCOMMON            E      0       0       1        0.0%
BITSFR0              0      0       0       1        0.0%
SFR0                 0      0       0       1        0.0%
COMMON               E      C       E       2      100.0%
BITSFR1              0      0       0       2        0.0%
SFR1                 0      0       0       2        0.0%
BITSFR2              0      0       0       3        0.0%
SFR2                 0      0       0       3        0.0%
STACK                0      0       0       3        0.0%
BITSFR3              0      0       0       4        0.0%
SFR3                 0      0       0       4        0.0%
ABS                  0      0      A4       4        0.0%
BITBANK0            50      0       0       5        0.0%
BITSFR4              0      0       0       5        0.0%
SFR4                 0      0       0       5        0.0%
BANK0               50     33      47       6       88.8%
BITSFR5              0      0       0       6        0.0%
SFR5                 0      0       0       6        0.0%
BITBANK1            50      0       0       7        0.0%
BITSFR6              0      0       0       7        0.0%
SFR6                 0      0       0       7        0.0%
BANK1               50     49      4F       8       98.8%
BITSFR7              0      0       0       8        0.0%
SFR7                 0      0       0       8        0.0%
BITBANK2            50      0       0       9        0.0%
BITSFR8              0      0       0       9        0.0%
SFR8                 0      0       0       9        0.0%
BANK2               50      0       0      10        0.0%
BITSFR9              0      0       0      10        0.0%
SFR9                 0      0       0      10        0.0%
BITBANK3            50      0       0      11        0.0%
BITSFR10             0      0       0      11        0.0%
SFR10                0      0       0      11        0.0%
BANK3               50      0       0      12        0.0%
BITSFR11             0      0       0      12        0.0%
SFR11                0      0       0      12        0.0%
BITBANK4            30      0       0      13        0.0%
BITSFR12             0      0       0      13        0.0%
SFR12                0      0       0      13        0.0%
BANK4               30      0       0      14        0.0%
BITSFR13             0      0       0      14        0.0%
SFR13                0      0       0      14        0.0%
BITSFR14             0      0       0      15        0.0%
SFR14                0      0       0      15        0.0%
DATA                 0      0      A4      15        0.0%
BITSFR15             0      0       0      16        0.0%
SFR15                0      0       0      16        0.0%
BITSFR16             0      0       0      17        0.0%
SFR16                0      0       0      17        0.0%
BITSFR17             0      0       0      18        0.0%
SFR17                0      0       0      18        0.0%
BITSFR18             0      0       0      19        0.0%
SFR18                0      0       0      19        0.0%
BITSFR19             0      0       0      20        0.0%
SFR19                0      0       0      20        0.0%
BITSFR20             0      0       0      21        0.0%
SFR20                0      0       0      21        0.0%
BITSFR21             0      0       0      22        0.0%
SFR21                0      0       0      22        0.0%
BITSFR22             0      0       0      23        0.0%
SFR22                0      0       0      23        0.0%
BITSFR23             0      0       0      24        0.0%
SFR23                0      0       0      24        0.0%
BITSFR24             0      0       0      25        0.0%
SFR24                0      0       0      25        0.0%
BITSFR25             0      0       0      26        0.0%
SFR25                0      0       0      26        0.0%
BITSFR26             0      0       0      27        0.0%
SFR26                0      0       0      27        0.0%
BITSFR27             0      0       0      28        0.0%
SFR27                0      0       0      28        0.0%
BITSFR28             0      0       0      29        0.0%
SFR28                0      0       0      29        0.0%
BITSFR29             0      0       0      30        0.0%
SFR29                0      0       0      30        0.0%
BITSFR30             0      0       0      31        0.0%
SFR30                0      0       0      31        0.0%
BITSFR31             0      0       0      32        0.0%
SFR31                0      0       0      32        0.0%


Microchip Technology PIC Macro Assembler V1.45 build -152302408 
Symbol Table                                                                                   Sun Jul 15 16:32:43 2018

      __size_of_I2C_Start 003D               __CFG_CP$OFF 0000                        l27 0DD8  
                      l19 0D01                        _RD 0CA8                        _WR 0CA9  
     ___wmul@multiplicand 00A2             _LCD_SetCursor 0D28              ___ftadd@exp1 003F  
            ___ftadd@exp2 003E              ___ftadd@sign 003D                       l100 0F51  
                     l415 049F                       l361 037B                       l426 04E9  
                     l354 023E                       l533 0D66                       l429 0508  
                     l358 02E2                       l383 0430                       l375 03FE  
                     l367 03CC                       l359 039A                       l393 0441  
                     l385 040F                       l377 03DD                       l369 03AB  
                     _GIE 005F                       _RA1 0061                       _RB3 006B  
                     _RB7 006F                       _PR2 001B                       _PR4 0416  
            __CFG_CPD$OFF 0000                       _odo 005D              __CFG_BORV$HI 0000  
                     wreg 0009              __CFG_LVP$OFF 0000                      _C1IE 0495  
                    l2100 0E2A                      _C1IF 0095                      l2112 0E43  
                    l2104 0E34                      l2126 0DAD                      l2310 0F47  
                    l2230 07BB                      l2240 07E9                      l2232 07C9  
                    l2082 0CD2                      l2244 07F4                      l2260 0E7F  
                    l2180 0D60                      l3044 0236                      l2254 0E59  
                    l2174 0CEC                      l2352 0D54                      l2256 0E67  
                    l2264 0E8A                      l2512 05AC                      l2504 05A7  
                    l2440 04A4                      l3048 0247                      l2290 0DF6  
                    l2442 04AD                      l2434 049B                      l2514 0479  
                    l3074 0297                      l2348 0D50                      l2292 0E10  
                    l2516 05FA                      l3236 0462                      l2454 04EB  
                    l2446 04BA                      l2480 055B                      l2464 0517  
                    l2474 052E                      l2458 04F0                      l2484 0577  
                    l2486 057A                      l2496 0590                      l2498 0594  
                    STR_1 0847                      STR_2 0837                      STR_3 082E  
                    STR_4 0825                      STR_5 083F                      STR_6 084E  
                    u2025 0D67                      u2035 0D6C                      u2205 07CA  
                    u2215 07DE                      u2225 07EA                      u2335 0F2C  
                    u2255 0E5C                      u2185 07BE                      u2505 0551  
                    u2275 0E75                      u2285 0E80                      u2525 056A  
                    u3515 0173                      u3525 01B4                      u3535 020A  
                    _PEIE 005E                      u3575 0326                      u3585 0345  
                    u3907 0468                      u3917 0D05                      u3927 0D81  
                    u3937 0D8E                      u3947 0CBA                      u3897 028D  
                    _TMR4 0415                      _WREN 0CAA                      _WPUB 020D  
            __CFG_WRT$OFF 0000          LCD_Init@contrast 00AE                      _main 0114  
            ___ftpack@arg 0070        __size_of_LCD_Clear 001E              ___ftpack@exp 0073  
                    fsr0h 0005                      fsr1h 0007                      indf0 0000  
                    fsr0l 0004                      indf1 0001                      fsr1l 0006  
        __end_of_I2C_Send 0DBA                      btemp 007E          __end_of_I2C_Stop 0CD0  
           __CFG_BOREN$ON 0000                      start 00EC             __CFG_IESO$OFF 0000  
           __CFG_FOSC$ECH 0000               LCD_Init@bon 00B0              ___ftmul@cntr 002E  
            ___ftmul@sign 002F    __size_of_I2C_IdleCheck 000F              ___fttol@exp1 004D  
            ___fttol@lval 0049          __end_of_LCD_Init 0F79          __end_of_LCD_Puts 0E13  
          ?_LCD_SetCursor 00AB                     _C1OUT 088E                     ?_main 0070  
                   _EEADR 0191           __end_of___ftadd 06F6             __CFG_WDTE$OFF 0000  
                   _CARRY 0018           __end_of___ftneg 0CC7           __end_of___lldiv 07FD  
         __end_of___ftmul 07AA                     _T1CON 0018           __end_of___llmod 0E93  
         __end_of___fttol 1000                     _T2CON 001C                     _T4CON 0417  
                   i1l701 0ED8                     i1l349 00E8                     i1l702 0EE0  
                   i1l725 069F                     i1l694 0EC5                     i1l785 0FE6  
             LCD_Puts@ans 00AB                     _TMR1H 0017                     _TMR1L 0016  
                   _PORTA 000C                     _PORTB 000D                     _TRISA 008C  
                   _TRISB 008D             __CFG_PWRTE$ON 0000                _ContSet_DT 0059  
          __CFG_FCMEN$OFF 0000           __end_of_command 0DDE           __end_of_dpowers 0825  
         __end_of_isdigit 0CEE             ___ftpack@sign 0074                     _pulse 0061  
       __end_of_I2C_Start 0E50                     status 0003    __size_of_InterFunction 00E8  
                   wtemp0 007E           __end_of_sprintf 0600          ??_InitI2C_Master 00A2  
            LCD_Init@icon 00AC                _FuncSet_DT 00EB            __CFG_MCLRE$OFF 0000  
         __initialization 00EE              __end_of_main 0473          __end_of_InterI2C 0D28  
        __end_of_Wait10ms 0D14                    ??_main 00D2          __end_of_Wait27us 0CBE  
           ___fttol@sign1 0048         __end_of_LCD_Clear 0D97            __CFG_PLLEN$OFF 0000  
                  _BCL1IE 0493                    _BCL1IF 0093             _I2C_IdleCheck 0CD0  
        ___llmod@dividend 00B2                    _EEDATA 0193                    _EECON1 0195  
                  _EECON2 0196                    _ANSELA 018C                    _ANSELB 018D  
        __end_of___ftpack 0EF7                    i1l2200 0EA2                    i1l2210 0ECA  
                  i1l2202 0EAC                    i1l2212 0ED2                    i1l2204 0EB1  
                  i1l2334 0D1D                    i1l2336 0D1E                    i1l2530 062F  
                  i1l2602 0723                    i1l2196 0E9B                    i1l2526 0628  
                  i1l2630 0782                    i1l2614 075E                    i1l2560 067E  
                  i1l2536 063E                    i1l2554 066B                    i1l2626 077A  
                  i1l2618 0766                    i1l2572 06B1                    i1l2556 0675  
                  i1l2548 0658                    i1l2566 0691                    i1l2558 067A  
                  i1l2654 0F92                    i1l2576 06C3                    i1l2568 069B  
                  i1l2680 0FDD                    i1l2672 0FC2                    i1l2920 0049  
                  i1l2586 06DE                    i1l2682 0FE9                    i1l2674 0FD0  
                  i1l2922 0051                    i1l2596 070D                    i1l2940 0081  
                  i1l2924 0053                    u211_25 0ECD                    i1l2686 0FF7  
                  i1l2926 0055                    i1l2944 0087                    i1l2936 0066  
                  i1l2952 00CC                    i1l2964 00DE                    u300_25 0FC3  
                  i1l2966 00E0                    u215_25 0EE7                    u207_25 0EA7  
                  u303_25 0FDE                    _INTCON 000B                    u209_25 0EC0  
                  u272_25 066C          __end_of___lwtoft 0D01                    u275_25 067F  
                  u292_25 0783                    u269_25 0659                    u293_25 0789  
                  u285_25 072F                    u278_25 0692                    u286_25 073F  
                  u288_25 0767                    u289_25 076D                    u297_25 0F99  
                  _OSCCON 0099                    _TMR1IE 0488                    _TMR1IF 0088  
                  _TMR2IE 0489                    _TMR2IF 0089                    _TMR4IE 0499  
                  _TMR4IF 0099                    _TMR4ON 20BA                    _SSP1IE 048B  
                  _SSP1IF 008B                    ___wmul 0D5D                 ??___ftadd 0039  
          __CFG_STVREN$ON 0000           ??_LCD_SetCursor 00AF                 ??___ftneg 007C  
               ??___lldiv 00A8                 ??___ftmul 0026                 ??___llmod 00B6  
               ??___fttol 0044             _InterFunction 0004                    _spdval 0055  
                  main@sw 00E7                 ??_command 00A8       InterFunction@widbuf 005B  
   ___ftmul@f3_as_product 002B                 ??_isdigit 00A0                 ?_I2C_Send 0070  
               ?_I2C_Stop 0070               Wait10ms@num 00A0            ?_I2C_IdleCheck 0070  
               ??_sprintf 00C0   __end_of__initialization 0110                 ?_LCD_Init 00AC  
               ?_LCD_Puts 00A8                ___ftadd@f1 0033                ___ftadd@f2 0036  
           LCD_Init@colsu 00B2                ___ftneg@f1 0030                ___ftmul@f1 0020  
              ___ftmul@f2 0023                 LCD_Init@d 00B9                ___fttol@f1 0040  
          __pcstackCOMMON 0070              __pidataBANK0 0CB5                 LCD_Puts@s 00A8  
     InitI2C_Master@speed 00A0            ?_InterFunction 0070                ___lwtoft@c 0078  
              ??_I2C_Send 00A2                ??_I2C_Stop 00A2              sprintf@width 00CF  
              __pbssBANK0 0053                __pbssBANK1 00E9                ??_LCD_Init 00B4  
               ?_InterI2C 0070                ??_LCD_Puts 00AA                 ?_Wait10ms 00A0  
               ?_Wait27us 0070                __pmaintext 0114                I2C_Send@dt 00A2  
                 ?___wmul 00A0                __pintentry 0004                   _DACCON0 0118  
                 _DACCON1 0119                   _CM1CON0 0111                   _CM1CON1 0112  
               ?___ftpack 0070                 ?___lwtoft 0078           ??_I2C_IdleCheck 00A0  
                 _SSP1ADD 0212                   _SSP1BUF 0211                ??_InterI2C 0070  
               _I2C_Start 0E13                ??_Wait10ms 00A2                ??_Wait27us 00A0  
                 ___ftadd 0600           ??_InterFunction 004E                   ___ftneg 0CBE  
                 ___lldiv 07AA           __size_of___wmul 001C                   ___ftmul 06F6  
                 ___llmod 0E50                   ___fttol 0F79  LCD_SetCursor@row_offsets 00AF  
              ??___ftpack 0075                   __ptext1 0473                   __ptext2 0CDF  
                 __ptext3 0D5D                   __ptext4 0E50                   __ptext5 07AA  
                 __ptext6 0D28                   __ptext7 0DDE                   __ptext8 0EF7  
                 __ptext9 0D01                   _command 0DBA                ??___lwtoft 007B  
                 _dpowers 07FD                   _isdigit 0CDF                 _LCD_Clear 0D79  
                 main@od1 00E2                   main@od2 00E3                   main@od3 00E4  
                 main@pl1 00E5                   main@pl2 00E6                   main@lcd 00DA  
                 _sprintf 0473      end_of_initialization 0110          LCD_SetCursor@col 00AB  
        LCD_SetCursor@row 00AD                ?_I2C_Start 00A2           ___lldiv@divisor 00A0  
         ___lldiv@counter 00AD              _LCD_ColumnSu 007C                ?_LCD_Clear 0070  
       __size_of_I2C_Send 0023         __size_of_I2C_Stop 0009                command@ans 00A8  
       __size_of_LCD_Init 0082         __size_of_LCD_Puts 0035               ___ftmul@exp 002A  
          __end_of___wmul 0D79     __end_of_LCD_SetCursor 0D42   __size_of_InitI2C_Master 001B  
     start_initialization 00EE           ___llmod@divisor 00AE               ??_I2C_Start 00A6  
         ___llmod@counter 00B7         __size_of_InterI2C 0014         __size_of_Wait10ms 0013  
       __size_of_Wait27us 0005                  ??___wmul 00A4        InterFunction@spdpl 0053  
             __pdataBANK0 0063        InterFunction@width 005C            _CollisionCheck 00E9  
       __size_of___ftpack 0064               __pbssCOMMON 007C                 ___latbits 0001  
       __size_of___lwtoft 0013             __pcstackBANK0 0020             __pcstackBANK1 00A0  
             ??_LCD_Clear 00AB               sprintf@flag 00CD               sprintf@prec 00C6  
               __pnvBANK0 005D                  ?___ftadd 0033                  ?___ftneg 0030  
                ?___lldiv 00A0                  ?___ftmul 0020                  ?___llmod 00AE  
                ?___fttol 0040                  ?_command 0070               I2C_Start@rw 00A4  
                ?_isdigit 0070                  _I2C_Send 0D97                  _I2C_Stop 0CC7  
   __end_of_I2C_IdleCheck 0CDF                  ?_sprintf 00B8                  _LCD_Init 0EF7  
          ___wmul@product 00A4                  _LCD_Puts 0DDE                  _SSP1CON1 0215  
                _SSP1CON2 0216                  _SSP1STAT 0214                  _AckCheck 0057  
   __end_of_InterFunction 00EC            _InitI2C_Master 0D42         ___wmul@multiplier 00A0  
             _LCD_NowPage 00ED             I2C_Start@adrs 00A2        LCD_SetCursor@F2852 0063  
                _InterI2C 0D14                  _Wait10ms 0D01                  _Wait27us 0CB9  
  __end_of_InitI2C_Master 0D5D          __size_of___ftadd 00F6         I2C_IdleCheck@mask 00A1  
        __size_of___ftneg 0009          __size_of___lldiv 0053          __size_of___ftmul 00B4  
        __size_of___llmod 0043          __size_of___fttol 0087                  ___ftpack 0E93  
             _isdigit$517 00A0                  ___lwtoft 0CEE          __size_of_command 0024  
              sprintf@val 00C8          __size_of_isdigit 000F                  __ptext10 0D79  
                __ptext11 0DBA                  __ptext20 0F79                  __ptext12 0CB9  
                __ptext21 0CBE                  __ptext13 0CC7                  __ptext22 06F6  
                __ptext14 0E13                  __ptext23 0600                  __ptext15 0D97  
                __ptext24 0E93                  __ptext16 0CD0                  __ptext25 0D14  
                __ptext17 0D42                  __ptext19 0CEE              _SSP1CON2bits 0216  
        __size_of_sprintf 018D             __size_of_main 035F                  int$flags 007E  
         ?_InitI2C_Master 00A0                  command@c 00AA              _SSP1STATbits 0214  
                isdigit@c 00A1                  intlevel1 0000                 sprintf@ap 00CC  
               sprintf@sp 00CE    __size_of_LCD_SetCursor 001A          ___lldiv@dividend 00A4  
       __CFG_CLKOUTEN$OFF 0000             __pstringtext1 07FD             __pstringtext2 0825  
           __pstringtext3 082E             __pstringtext4 0837             __pstringtext5 083F  
           __pstringtext6 0847             __pstringtext7 084E             __pstringtext8 0000  
              _OPTION_REG 0095                  sprintf@c 00D1                  sprintf@f 00B8  
        ___lldiv@quotient 00A9  
